---
triple:          'arm64-apple-darwin'
binary-path:     '/Users/omsmac/Cohort/DSA_and_CP/turing_code_evals/largest_connected_comp'
relocations:
  - { offsetInCU: 0x23E3F, offset: 0x23E3F, size: 0x8, addend: 0x0, symName: __ZStL8__ioinit, symObjAddr: 0xB74C0, symBinAddr: 0x100014000, symSize: 0x0 }
  - { offsetInCU: 0x24183, offset: 0x24183, size: 0x8, addend: 0x0, symName: _n, symObjAddr: 0xB74C8, symBinAddr: 0x100014008, symSize: 0x0 }
  - { offsetInCU: 0x2419A, offset: 0x2419A, size: 0x8, addend: 0x0, symName: _m, symObjAddr: 0xB74CC, symBinAddr: 0x10001400C, symSize: 0x0 }
  - { offsetInCU: 0x242DA, offset: 0x242DA, size: 0x8, addend: 0x0, symName: _arr, symObjAddr: 0xB74D0, symBinAddr: 0x100014010, symSize: 0x0 }
  - { offsetInCU: 0x244A0, offset: 0x244A0, size: 0x8, addend: 0x0, symName: _parent, symObjAddr: 0xB74E8, symBinAddr: 0x100014028, symSize: 0x0 }
  - { offsetInCU: 0x24631, offset: 0x24631, size: 0x8, addend: 0x0, symName: _siz, symObjAddr: 0xB7518, symBinAddr: 0x100014058, symSize: 0x0 }
  - { offsetInCU: 0x24D41, offset: 0x24D41, size: 0x8, addend: 0x0, symName: __ZNSt6vectorIS_IcSaIcEESaIS1_EED1Ev, symObjAddr: 0x6B34, symBinAddr: 0x100009C8C, symSize: 0x5C }
  - { offsetInCU: 0x24DD3, offset: 0x24DD3, size: 0x8, addend: 0x0, symName: __ZNSt3mapISt4pairIiiEiSt4lessIS1_ESaIS0_IKS1_iEEED1Ev, symObjAddr: 0x6B14, symBinAddr: 0x100009C6C, symSize: 0x20 }
  - { offsetInCU: 0x24E21, offset: 0x24E21, size: 0x8, addend: 0x0, symName: __ZNSt3mapISt4pairIiiES1_St4lessIS1_ESaIS0_IKS1_S1_EEED1Ev, symObjAddr: 0x6AF4, symBinAddr: 0x100009C4C, symSize: 0x20 }
  - { offsetInCU: 0x24E0D, offset: 0x24E0D, size: 0x8, addend: 0x0, symName: __ZNSt10_Head_baseILm0EOSt4pairIiiELb0EE7_M_headERS3_, symObjAddr: 0x6ADC, symBinAddr: 0x100009C34, symSize: 0x18 }
  - { offsetInCU: 0x24E36, offset: 0x24E36, size: 0x8, addend: 0x0, symName: __ZNSt10_Head_baseILm0ERKSt4pairIiiELb0EE7_M_headERS4_, symObjAddr: 0x6AC4, symBinAddr: 0x100009C1C, symSize: 0x18 }
  - { offsetInCU: 0x24E5F, offset: 0x24E5F, size: 0x8, addend: 0x0, symName: __ZNSt11_Tuple_implILm0EJOSt4pairIiiEEE7_M_headERS3_, symObjAddr: 0x6AA8, symBinAddr: 0x100009C00, symSize: 0x1C }
  - { offsetInCU: 0x24E89, offset: 0x24E89, size: 0x8, addend: 0x0, symName: __ZNSt11_Tuple_implILm0EJRKSt4pairIiiEEE7_M_headERS4_, symObjAddr: 0x6A8C, symBinAddr: 0x100009BE4, symSize: 0x1C }
  - { offsetInCU: 0x24EB3, offset: 0x24EB3, size: 0x8, addend: 0x0, symName: __ZSt12__get_helperILm0EOSt4pairIiiEJEERT0_RSt11_Tuple_implIXT_EJS3_DpT1_EE, symObjAddr: 0x6A70, symBinAddr: 0x100009BC8, symSize: 0x1C }
  - { offsetInCU: 0x24EF5, offset: 0x24EF5, size: 0x8, addend: 0x0, symName: __ZSt12__get_helperILm0ERKSt4pairIiiEJEERT0_RSt11_Tuple_implIXT_EJS4_DpT1_EE, symObjAddr: 0x6A54, symBinAddr: 0x100009BAC, symSize: 0x1C }
  - { offsetInCU: 0x24F3D, offset: 0x24F3D, size: 0x8, addend: 0x0, symName: __ZSt7forwardIOSt4pairIiiEEOT_RNSt16remove_referenceIS3_E4typeE, symObjAddr: 0x6A40, symBinAddr: 0x100009B98, symSize: 0x14 }
  - { offsetInCU: 0x24F6F, offset: 0x24F6F, size: 0x8, addend: 0x0, symName: __ZSt3getILm0EJOSt4pairIiiEEERNSt13tuple_elementIXT_ESt5tupleIJDpT0_EEE4typeERS7_, symObjAddr: 0x6A24, symBinAddr: 0x100009B7C, symSize: 0x1C }
  - { offsetInCU: 0x2500B, offset: 0x2500B, size: 0x8, addend: 0x0, symName: __ZNSt12_Vector_baseIcSaIcEE17_Vector_impl_dataC2EOS2_, symObjAddr: 0x69B4, symBinAddr: 0x100009B0C, symSize: 0x70 }
  - { offsetInCU: 0x25011, offset: 0x25011, size: 0x8, addend: 0x0, symName: __ZSt4moveIRNSt12_Vector_baseIcSaIcEE12_Vector_implEEONSt16remove_referenceIT_E4typeEOS6_, symObjAddr: 0x69A0, symBinAddr: 0x100009AF8, symSize: 0x14 }
  - { offsetInCU: 0x2508A, offset: 0x2508A, size: 0x8, addend: 0x0, symName: __ZNSt4pairIiiEC1IiiLb1EEEv, symObjAddr: 0x697C, symBinAddr: 0x100009AD4, symSize: 0x24 }
  - { offsetInCU: 0x250AD, offset: 0x250AD, size: 0x8, addend: 0x0, symName: __ZSt7forwardIRKSt4pairIiiEEOT_RNSt16remove_referenceIS4_E4typeE, symObjAddr: 0x6968, symBinAddr: 0x100009AC0, symSize: 0x14 }
  - { offsetInCU: 0x250DF, offset: 0x250DF, size: 0x8, addend: 0x0, symName: __ZSt3getILm0EJRKSt4pairIiiEEERNSt13tuple_elementIXT_ESt5tupleIJDpT0_EEE4typeERS8_, symObjAddr: 0x694C, symBinAddr: 0x100009AA4, symSize: 0x1C }
  - { offsetInCU: 0x251F8, offset: 0x251F8, size: 0x8, addend: 0x0, symName: __ZNSt4pairIKS_IiiEiEC1IJOS0_EJLm0EEJEJEEERSt5tupleIJDpT_EERS5_IJDpT1_EESt12_Index_tupleIJXspT0_EEESE_IJXspT2_EEE, symObjAddr: 0x6900, symBinAddr: 0x100009A58, symSize: 0x4C }
  - { offsetInCU: 0x251FA, offset: 0x251FA, size: 0x8, addend: 0x0, symName: __ZSt9__fill_a1IcEN9__gnu_cxx11__enable_ifIXsrSt9__is_byteIT_E7__valueEvE6__typeEPS3_S7_RKS3_, symObjAddr: 0x68A4, symBinAddr: 0x1000099FC, symSize: 0x5C }
  - { offsetInCU: 0x252DC, offset: 0x252DC, size: 0x8, addend: 0x0, symName: __ZNSt12_Vector_baseIcSaIcEE12_Vector_implC1EOS2_, symObjAddr: 0x6838, symBinAddr: 0x100009990, symSize: 0x6C }
  - { offsetInCU: 0x2540C, offset: 0x2540C, size: 0x8, addend: 0x0, symName: __ZNSt4pairIKS_IiiEiEC1IJRS1_EJLm0EEJEJEEERSt5tupleIJDpT_EERS5_IJDpT1_EESt12_Index_tupleIJXspT0_EEESE_IJXspT2_EEE, symObjAddr: 0x67EC, symBinAddr: 0x100009944, symSize: 0x4C }
  - { offsetInCU: 0x254EA, offset: 0x254EA, size: 0x8, addend: 0x0, symName: __ZNSt4pairIKS_IiiES0_EC1IJRS1_EJLm0EEJEJEEERSt5tupleIJDpT_EERS5_IJDpT1_EESt12_Index_tupleIJXspT0_EEESE_IJXspT2_EEE, symObjAddr: 0x679C, symBinAddr: 0x1000098F4, symSize: 0x50 }
  - { offsetInCU: 0x2558C, offset: 0x2558C, size: 0x8, addend: 0x0, symName: __ZNSt4pairIKS_IiiEiEC1IJOS0_EJEEESt21piecewise_construct_tSt5tupleIJDpT_EES6_IJDpT0_EE, symObjAddr: 0x6760, symBinAddr: 0x1000098B8, symSize: 0x3C }
  - { offsetInCU: 0x255DD, offset: 0x255DD, size: 0x8, addend: 0x0, symName: __ZNSt11_Tuple_implILm0EJOSt4pairIiiEEEC2EOS3_, symObjAddr: 0x6738, symBinAddr: 0x100009890, symSize: 0x28 }
  - { offsetInCU: 0x255DE, offset: 0x255DE, size: 0x8, addend: 0x0, symName: __ZSt8__fill_aIPccEvT_S1_RKT0_, symObjAddr: 0x6708, symBinAddr: 0x100009860, symSize: 0x30 }
  - { offsetInCU: 0x256E5, offset: 0x256E5, size: 0x8, addend: 0x0, symName: __ZNSt6vectorIcSaIcEEC1EOS1_, symObjAddr: 0x66E0, symBinAddr: 0x100009838, symSize: 0x28 }
  - { offsetInCU: 0x2573A, offset: 0x2573A, size: 0x8, addend: 0x0, symName: __ZNSt12_Vector_baseIcSaIcEEC2EOS1_, symObjAddr: 0x66B8, symBinAddr: 0x100009810, symSize: 0x28 }
  - { offsetInCU: 0x2574C, offset: 0x2574C, size: 0x8, addend: 0x0, symName: __ZSt7forwardISt6vectorIcSaIcEEEOT_RNSt16remove_referenceIS3_E4typeE, symObjAddr: 0x66A4, symBinAddr: 0x1000097FC, symSize: 0x14 }
  - { offsetInCU: 0x25782, offset: 0x25782, size: 0x8, addend: 0x0, symName: __ZNSt12_Vector_baseIcSaIcEE13_M_deallocateEPcm, symObjAddr: 0x664C, symBinAddr: 0x1000097A4, symSize: 0x58 }
  - { offsetInCU: 0x2584D, offset: 0x2584D, size: 0x8, addend: 0x0, symName: __ZNSt12_Vector_baseIcSaIcEE17_Vector_impl_dataC2Ev, symObjAddr: 0x6620, symBinAddr: 0x100009778, symSize: 0x2C }
  - { offsetInCU: 0x258E2, offset: 0x258E2, size: 0x8, addend: 0x0, symName: __ZNSt4pairIKS_IiiEiEC1IJRS1_EJEEESt21piecewise_construct_tSt5tupleIJDpT_EES6_IJDpT0_EE, symObjAddr: 0x65E4, symBinAddr: 0x10000973C, symSize: 0x3C }
  - { offsetInCU: 0x25981, offset: 0x25981, size: 0x8, addend: 0x0, symName: __ZNSt4pairIKS_IiiES0_EC1IJRS1_EJEEESt21piecewise_construct_tSt5tupleIJDpT_EES6_IJDpT0_EE, symObjAddr: 0x65A8, symBinAddr: 0x100009700, symSize: 0x3C }
  - { offsetInCU: 0x259D1, offset: 0x259D1, size: 0x8, addend: 0x0, symName: __ZNSt11_Tuple_implILm0EJRKSt4pairIiiEEEC2EOS4_, symObjAddr: 0x6580, symBinAddr: 0x1000096D8, symSize: 0x28 }
  - { offsetInCU: 0x25A17, offset: 0x25A17, size: 0x8, addend: 0x0, symName: __ZNSt15__new_allocatorISt13_Rb_tree_nodeISt4pairIiiEEE8allocateEmPKv, symObjAddr: 0x64F0, symBinAddr: 0x100009648, symSize: 0x90 }
  - { offsetInCU: 0x25B44, offset: 0x25B44, size: 0x8, addend: 0x0, symName: __ZNSt5tupleIJOSt4pairIiiEEEC1EOS3_, symObjAddr: 0x64C8, symBinAddr: 0x100009620, symSize: 0x28 }
  - { offsetInCU: 0x25B59, offset: 0x25B59, size: 0x8, addend: 0x0, symName: __ZNK9__gnu_cxx16__aligned_membufISt4pairIiiEE7_M_addrEv, symObjAddr: 0x64B4, symBinAddr: 0x10000960C, symSize: 0x14 }
  - { offsetInCU: 0x25B87, offset: 0x25B87, size: 0x8, addend: 0x0, symName: __ZN9__gnu_cxx16__aligned_membufISt4pairIiiEE7_M_addrEv, symObjAddr: 0x64A0, symBinAddr: 0x1000095F8, symSize: 0x14 }
  - { offsetInCU: 0x25BAC, offset: 0x25BAC, size: 0x8, addend: 0x0, symName: __ZSt10__fill_n_aIPcmcET_S1_T0_RKT1_St26random_access_iterator_tag, symObjAddr: 0x6444, symBinAddr: 0x10000959C, symSize: 0x5C }
  - { offsetInCU: 0x25C59, offset: 0x25C59, size: 0x8, addend: 0x0, symName: __ZNSt6vectorIcSaIcEED1Ev, symObjAddr: 0x63E8, symBinAddr: 0x100009540, symSize: 0x5C }
  - { offsetInCU: 0x25D14, offset: 0x25D14, size: 0x8, addend: 0x0, symName: __ZSt4moveIRSt6vectorIcSaIcEEEONSt16remove_referenceIT_E4typeEOS5_, symObjAddr: 0x63D4, symBinAddr: 0x10000952C, symSize: 0x14 }
  - { offsetInCU: 0x25D8A, offset: 0x25D8A, size: 0x8, addend: 0x0, symName: __ZNSt12_Vector_baseIcSaIcEED2Ev, symObjAddr: 0x6388, symBinAddr: 0x1000094E0, symSize: 0x4C }
  - { offsetInCU: 0x25DD8, offset: 0x25DD8, size: 0x8, addend: 0x0, symName: __ZNSt12_Vector_baseIcSaIcEE12_Vector_implC1Ev, symObjAddr: 0x6350, symBinAddr: 0x1000094A8, symSize: 0x38 }
  - { offsetInCU: 0x25E1F, offset: 0x25E1F, size: 0x8, addend: 0x0, symName: __ZNK9__gnu_cxx16__aligned_membufISt4pairIKS1_IiiEiEE7_M_addrEv, symObjAddr: 0x633C, symBinAddr: 0x100009494, symSize: 0x14 }
  - { offsetInCU: 0x25E9E, offset: 0x25E9E, size: 0x8, addend: 0x0, symName: __ZNSt15__new_allocatorISt13_Rb_tree_nodeISt4pairIKS1_IiiEiEEE8allocateEmPKv, symObjAddr: 0x62AC, symBinAddr: 0x100009404, symSize: 0x90 }
  - { offsetInCU: 0x25F2F, offset: 0x25F2F, size: 0x8, addend: 0x0, symName: __ZNK9__gnu_cxx16__aligned_membufISt4pairIKS1_IiiES2_EE7_M_addrEv, symObjAddr: 0x6298, symBinAddr: 0x1000093F0, symSize: 0x14 }
  - { offsetInCU: 0x25FED, offset: 0x25FED, size: 0x8, addend: 0x0, symName: __ZNSt5tupleIJRKSt4pairIiiEEEC1EOS4_, symObjAddr: 0x6270, symBinAddr: 0x1000093C8, symSize: 0x28 }
  - { offsetInCU: 0x25FFC, offset: 0x25FFC, size: 0x8, addend: 0x0, symName: __ZNSt15__new_allocatorISt13_Rb_tree_nodeISt4pairIKS1_IiiES2_EEE8allocateEmPKv, symObjAddr: 0x61E0, symBinAddr: 0x100009338, symSize: 0x90 }
  - { offsetInCU: 0x26148, offset: 0x26148, size: 0x8, addend: 0x0, symName: __ZNK9__gnu_cxx16__aligned_membufISt4pairIiiEE6_M_ptrEv, symObjAddr: 0x61C4, symBinAddr: 0x10000931C, symSize: 0x1C }
  - { offsetInCU: 0x26172, offset: 0x26172, size: 0x8, addend: 0x0, symName: __ZNSt15__new_allocatorISt13_Rb_tree_nodeISt4pairIiiEEE10deallocateEPS3_m, symObjAddr: 0x6188, symBinAddr: 0x1000092E0, symSize: 0x3C }
  - { offsetInCU: 0x261E8, offset: 0x261E8, size: 0x8, addend: 0x0, symName: __ZN9__gnu_cxx16__aligned_membufISt4pairIiiEE6_M_ptrEv, symObjAddr: 0x616C, symBinAddr: 0x1000092C4, symSize: 0x1C }
  - { offsetInCU: 0x2620E, offset: 0x2620E, size: 0x8, addend: 0x0, symName: __ZSt6fill_nIPcmcET_S1_T0_RKT1_, symObjAddr: 0x6124, symBinAddr: 0x10000927C, symSize: 0x48 }
  - { offsetInCU: 0x26296, offset: 0x26296, size: 0x8, addend: 0x0, symName: __ZSt10_ConstructIcJEEvPT_DpOT0_, symObjAddr: 0x60F8, symBinAddr: 0x100009250, symSize: 0x2C }
  - { offsetInCU: 0x262E8, offset: 0x262E8, size: 0x8, addend: 0x0, symName: __ZSt8_DestroyISt6vectorIcSaIcEEEvPT_, symObjAddr: 0x60D8, symBinAddr: 0x100009230, symSize: 0x20 }
  - { offsetInCU: 0x2631A, offset: 0x2631A, size: 0x8, addend: 0x0, symName: __ZSt19__relocate_object_aISt6vectorIcSaIcEES2_SaIS2_EEvPT_PT0_RT1_, symObjAddr: 0x6008, symBinAddr: 0x100009160, symSize: 0xD0 }
  - { offsetInCU: 0x2644C, offset: 0x2644C, size: 0x8, addend: 0x0, symName: __ZSt10_ConstructISt6vectorIcSaIcEEJEEvPT_DpOT0_, symObjAddr: 0x5FD4, symBinAddr: 0x10000912C, symSize: 0x34 }
  - { offsetInCU: 0x264BB, offset: 0x264BB, size: 0x8, addend: 0x0, symName: __ZNSt6vectorIcSaIcEEC1Ev, symObjAddr: 0x5FB4, symBinAddr: 0x10000910C, symSize: 0x20 }
  - { offsetInCU: 0x26502, offset: 0x26502, size: 0x8, addend: 0x0, symName: __ZNSt12_Vector_baseIcSaIcEEC2Ev, symObjAddr: 0x5F94, symBinAddr: 0x1000090EC, symSize: 0x20 }
  - { offsetInCU: 0x2655D, offset: 0x2655D, size: 0x8, addend: 0x0, symName: __ZNSt12_Vector_baseIcSaIcEE12_Vector_implD1Ev, symObjAddr: 0x5F68, symBinAddr: 0x1000090C0, symSize: 0x2C }
  - { offsetInCU: 0x26578, offset: 0x26578, size: 0x8, addend: 0x0, symName: __ZSt11__addressofISt6vectorIcSaIcEEEPT_RS3_, symObjAddr: 0x5F54, symBinAddr: 0x1000090AC, symSize: 0x14 }
  - { offsetInCU: 0x265C4, offset: 0x265C4, size: 0x8, addend: 0x0, symName: __ZNK9__gnu_cxx16__aligned_membufISt4pairIKS1_IiiEiEE6_M_ptrEv, symObjAddr: 0x5F38, symBinAddr: 0x100009090, symSize: 0x1C }
  - { offsetInCU: 0x265F6, offset: 0x265F6, size: 0x8, addend: 0x0, symName: __ZSt7forwardIRPSt13_Rb_tree_nodeISt4pairIKS1_IiiEiEEEOT_RNSt16remove_referenceIS8_E4typeE, symObjAddr: 0x5F24, symBinAddr: 0x10000907C, symSize: 0x14 }
  - { offsetInCU: 0x266A8, offset: 0x266A8, size: 0x8, addend: 0x0, symName: __ZNK9__gnu_cxx16__aligned_membufISt4pairIKS1_IiiES2_EE6_M_ptrEv, symObjAddr: 0x5F08, symBinAddr: 0x100009060, symSize: 0x1C }
  - { offsetInCU: 0x266DA, offset: 0x266DA, size: 0x8, addend: 0x0, symName: __ZSt7forwardIRPSt13_Rb_tree_nodeISt4pairIKS1_IiiES2_EEEOT_RNSt16remove_referenceIS8_E4typeE, symObjAddr: 0x5EF4, symBinAddr: 0x10000904C, symSize: 0x14 }
  - { offsetInCU: 0x2678C, offset: 0x2678C, size: 0x8, addend: 0x0, symName: __ZNSt15__new_allocatorISt13_Rb_tree_nodeISt4pairIKS1_IiiEiEEE10deallocateEPS5_m, symObjAddr: 0x5EB8, symBinAddr: 0x100009010, symSize: 0x3C }
  - { offsetInCU: 0x26802, offset: 0x26802, size: 0x8, addend: 0x0, symName: __ZNSt15__new_allocatorISt13_Rb_tree_nodeISt4pairIKS1_IiiES2_EEE10deallocateEPS5_m, symObjAddr: 0x5E7C, symBinAddr: 0x100008FD4, symSize: 0x3C }
  - { offsetInCU: 0x26880, offset: 0x26880, size: 0x8, addend: 0x0, symName: __ZSt7forwardIRPSt13_Rb_tree_nodeISt4pairIiiEEEOT_RNSt16remove_referenceIS6_E4typeE, symObjAddr: 0x5E68, symBinAddr: 0x100008FC0, symSize: 0x14 }
  - { offsetInCU: 0x268B6, offset: 0x268B6, size: 0x8, addend: 0x0, symName: __ZNSt8_Rb_treeISt4pairIiiES1_St9_IdentityIS1_ESt4lessIS1_ESaIS1_EE17_M_construct_nodeIJS1_EEEvPSt13_Rb_tree_nodeIS1_EDpOT_, symObjAddr: 0x5DB8, symBinAddr: 0x100008F10, symSize: 0xB0 }
  - { offsetInCU: 0x26979, offset: 0x26979, size: 0x8, addend: 0x0, symName: __ZNSt8_Rb_treeISt4pairIiiES1_St9_IdentityIS1_ESt4lessIS1_ESaIS1_EE11_M_get_nodeEv, symObjAddr: 0x5D7C, symBinAddr: 0x100008ED4, symSize: 0x3C }
  - { offsetInCU: 0x269D0, offset: 0x269D0, size: 0x8, addend: 0x0, symName: __ZNSt8_Rb_treeISt4pairIiiES0_IKS1_iESt10_Select1stIS3_ESt4lessIS1_ESaIS3_EE17_M_construct_nodeIJRKSt21piecewise_construct_tSt5tupleIJOS1_EESE_IJEEEEEvPSt13_Rb_tree_nodeIS3_EDpOT_, symObjAddr: 0x5C00, symBinAddr: 0x100008D58, symSize: 0x17C }
  - { offsetInCU: 0x26B30, offset: 0x26B30, size: 0x8, addend: 0x0, symName: __ZNSt10_Head_baseILm0EOSt4pairIiiELb0EEC2IS1_EEOT_, symObjAddr: 0x5BD0, symBinAddr: 0x100008D28, symSize: 0x30 }
  - { offsetInCU: 0x26B39, offset: 0x26B39, size: 0x8, addend: 0x0, symName: __ZNKSt9_IdentityISt4pairIiiEEclERKS1_, symObjAddr: 0x5BB8, symBinAddr: 0x100008D10, symSize: 0x18 }
  - { offsetInCU: 0x26B74, offset: 0x26B74, size: 0x8, addend: 0x0, symName: __ZNKSt13_Rb_tree_nodeISt4pairIiiEE9_M_valptrEv, symObjAddr: 0x5B98, symBinAddr: 0x100008CF0, symSize: 0x20 }
  - { offsetInCU: 0x26BFD, offset: 0x26BFD, size: 0x8, addend: 0x0, symName: __ZNSt13_Rb_tree_nodeISt4pairIiiEE9_M_valptrEv, symObjAddr: 0x5B78, symBinAddr: 0x100008CD0, symSize: 0x20 }
  - { offsetInCU: 0x26C27, offset: 0x26C27, size: 0x8, addend: 0x0, symName: __ZNSt8_Rb_treeISt4pairIiiES1_St9_IdentityIS1_ESt4lessIS1_ESaIS1_EE21_M_get_Node_allocatorEv, symObjAddr: 0x5B64, symBinAddr: 0x100008CBC, symSize: 0x14 }
  - { offsetInCU: 0x26C4D, offset: 0x26C4D, size: 0x8, addend: 0x0, symName: __ZNSt12_Destroy_auxILb1EE9__destroyIPcEEvT_S3_, symObjAddr: 0x5B4C, symBinAddr: 0x100008CA4, symSize: 0x18 }
  - { offsetInCU: 0x26C81, offset: 0x26C81, size: 0x8, addend: 0x0, symName: __ZSt14__relocate_a_1IccENSt9enable_ifIXsrSt24__is_bitwise_relocatableIT_vE5valueEPS2_E4typeES4_S4_S4_RSaIT0_E, symObjAddr: 0x5AF4, symBinAddr: 0x100008C4C, symSize: 0x58 }
  - { offsetInCU: 0x26D01, offset: 0x26D01, size: 0x8, addend: 0x0, symName: __ZSt12__niter_baseIPcET_S1_, symObjAddr: 0x5AE0, symBinAddr: 0x100008C38, symSize: 0x14 }
  - { offsetInCU: 0x26D34, offset: 0x26D34, size: 0x8, addend: 0x0, symName: __ZNSt27__uninitialized_default_n_1ILb1EE18__uninit_default_nIPcmEET_S3_T0_, symObjAddr: 0x5A7C, symBinAddr: 0x100008BD4, symSize: 0x64 }
  - { offsetInCU: 0x26DC1, offset: 0x26DC1, size: 0x8, addend: 0x0, symName: __ZNSt12_Destroy_auxILb0EE9__destroyIPSt6vectorIcSaIcEEEEvT_S6_, symObjAddr: 0x5A30, symBinAddr: 0x100008B88, symSize: 0x4C }
  - { offsetInCU: 0x26E03, offset: 0x26E03, size: 0x8, addend: 0x0, symName: __ZSt14__relocate_a_1IPSt6vectorIcSaIcEES3_SaIS2_EET0_T_S6_S5_RT1_, symObjAddr: 0x59AC, symBinAddr: 0x100008B04, symSize: 0x84 }
  - { offsetInCU: 0x26E8C, offset: 0x26E8C, size: 0x8, addend: 0x0, symName: __ZSt12__niter_baseIPSt6vectorIcSaIcEEET_S4_, symObjAddr: 0x5998, symBinAddr: 0x100008AF0, symSize: 0x14 }
  - { offsetInCU: 0x26EC3, offset: 0x26EC3, size: 0x8, addend: 0x0, symName: __ZNSt15__new_allocatorISt6vectorIcSaIcEEE8allocateEmPKv, symObjAddr: 0x5908, symBinAddr: 0x100008A60, symSize: 0x90 }
  - { offsetInCU: 0x26F4B, offset: 0x26F4B, size: 0x8, addend: 0x0, symName: __ZNSt27__uninitialized_default_n_1ILb0EE18__uninit_default_nIPSt6vectorIcSaIcEEmEET_S6_T0_, symObjAddr: 0x58B0, symBinAddr: 0x100008A08, symSize: 0x58 }
  - { offsetInCU: 0x26FC3, offset: 0x26FC3, size: 0x8, addend: 0x0, symName: __ZNKSt10_Select1stISt4pairIKS0_IiiEiEEclERKS3_, symObjAddr: 0x5898, symBinAddr: 0x1000089F0, symSize: 0x18 }
  - { offsetInCU: 0x26FFE, offset: 0x26FFE, size: 0x8, addend: 0x0, symName: __ZNKSt13_Rb_tree_nodeISt4pairIKS0_IiiEiEE9_M_valptrEv, symObjAddr: 0x5878, symBinAddr: 0x1000089D0, symSize: 0x20 }
  - { offsetInCU: 0x270C8, offset: 0x270C8, size: 0x8, addend: 0x0, symName: __ZNSt4pairIPSt18_Rb_tree_node_baseS1_EC1IRPSt13_Rb_tree_nodeIS_IKS_IiiEiEERS1_Lb1EEEOT_OT0_, symObjAddr: 0x5830, symBinAddr: 0x100008988, symSize: 0x48 }
  - { offsetInCU: 0x270BA, offset: 0x270BA, size: 0x8, addend: 0x0, symName: __ZNSt8_Rb_treeISt4pairIiiES0_IKS1_iESt10_Select1stIS3_ESt4lessIS1_ESaIS3_EE5beginEv, symObjAddr: 0x5808, symBinAddr: 0x100008960, symSize: 0x28 }
  - { offsetInCU: 0x270E4, offset: 0x270E4, size: 0x8, addend: 0x0, symName: __ZNSt8_Rb_treeISt4pairIiiES0_IKS1_iESt10_Select1stIS3_ESt4lessIS1_ESaIS3_EE17_M_construct_nodeIJRKSt21piecewise_construct_tSt5tupleIJRS2_EESE_IJEEEEEvPSt13_Rb_tree_nodeIS3_EDpOT_, symObjAddr: 0x568C, symBinAddr: 0x1000087E4, symSize: 0x17C }
  - { offsetInCU: 0x271E5, offset: 0x271E5, size: 0x8, addend: 0x0, symName: __ZNSt8_Rb_treeISt4pairIiiES0_IKS1_iESt10_Select1stIS3_ESt4lessIS1_ESaIS3_EE11_M_get_nodeEv, symObjAddr: 0x5650, symBinAddr: 0x1000087A8, symSize: 0x3C }
  - { offsetInCU: 0x27241, offset: 0x27241, size: 0x8, addend: 0x0, symName: __ZN9__gnu_cxx16__aligned_membufISt4pairIKS1_IiiEiEE7_M_addrEv, symObjAddr: 0x563C, symBinAddr: 0x100008794, symSize: 0x14 }
  - { offsetInCU: 0x2726A, offset: 0x2726A, size: 0x8, addend: 0x0, symName: __ZNKSt10_Select1stISt4pairIKS0_IiiES1_EEclERKS3_, symObjAddr: 0x5624, symBinAddr: 0x10000877C, symSize: 0x18 }
  - { offsetInCU: 0x272A5, offset: 0x272A5, size: 0x8, addend: 0x0, symName: __ZNKSt13_Rb_tree_nodeISt4pairIKS0_IiiES1_EE9_M_valptrEv, symObjAddr: 0x5604, symBinAddr: 0x10000875C, symSize: 0x20 }
  - { offsetInCU: 0x272D1, offset: 0x272D1, size: 0x8, addend: 0x0, symName: __ZSt7forwardIRPSt18_Rb_tree_node_baseEOT_RNSt16remove_referenceIS3_E4typeE, symObjAddr: 0x55F0, symBinAddr: 0x100008748, symSize: 0x14 }
  - { offsetInCU: 0x273A9, offset: 0x273A9, size: 0x8, addend: 0x0, symName: __ZNSt4pairIPSt18_Rb_tree_node_baseS1_EC1IRPSt13_Rb_tree_nodeIS_IKS_IiiES5_EERS1_Lb1EEEOT_OT0_, symObjAddr: 0x55A8, symBinAddr: 0x100008700, symSize: 0x48 }
  - { offsetInCU: 0x27399, offset: 0x27399, size: 0x8, addend: 0x0, symName: __ZNSt8_Rb_treeISt4pairIiiES0_IKS1_S1_ESt10_Select1stIS3_ESt4lessIS1_ESaIS3_EE5beginEv, symObjAddr: 0x5580, symBinAddr: 0x1000086D8, symSize: 0x28 }
  - { offsetInCU: 0x273C3, offset: 0x273C3, size: 0x8, addend: 0x0, symName: __ZNSt8_Rb_treeISt4pairIiiES0_IKS1_S1_ESt10_Select1stIS3_ESt4lessIS1_ESaIS3_EE17_M_construct_nodeIJRKSt21piecewise_construct_tSt5tupleIJRS2_EESE_IJEEEEEvPSt13_Rb_tree_nodeIS3_EDpOT_, symObjAddr: 0x5404, symBinAddr: 0x10000855C, symSize: 0x17C }
  - { offsetInCU: 0x274C4, offset: 0x274C4, size: 0x8, addend: 0x0, symName: __ZNSt8_Rb_treeISt4pairIiiES0_IKS1_S1_ESt10_Select1stIS3_ESt4lessIS1_ESaIS3_EE11_M_get_nodeEv, symObjAddr: 0x53C8, symBinAddr: 0x100008520, symSize: 0x3C }
  - { offsetInCU: 0x27520, offset: 0x27520, size: 0x8, addend: 0x0, symName: __ZN9__gnu_cxx16__aligned_membufISt4pairIKS1_IiiES2_EE7_M_addrEv, symObjAddr: 0x53B4, symBinAddr: 0x10000850C, symSize: 0x14 }
  - { offsetInCU: 0x275A8, offset: 0x275A8, size: 0x8, addend: 0x0, symName: __ZNSt8_Rb_treeISt4pairIiiES0_IKS1_iESt10_Select1stIS3_ESt4lessIS1_ESaIS3_EE21_M_get_Node_allocatorEv, symObjAddr: 0x53A0, symBinAddr: 0x1000084F8, symSize: 0x14 }
  - { offsetInCU: 0x27631, offset: 0x27631, size: 0x8, addend: 0x0, symName: __ZNSt8_Rb_treeISt4pairIiiES0_IKS1_S1_ESt10_Select1stIS3_ESt4lessIS1_ESaIS3_EE21_M_get_Node_allocatorEv, symObjAddr: 0x538C, symBinAddr: 0x1000084E4, symSize: 0x14 }
  - { offsetInCU: 0x2765B, offset: 0x2765B, size: 0x8, addend: 0x0, symName: __ZNSt15__new_allocatorIcE8allocateEmPKv, symObjAddr: 0x5328, symBinAddr: 0x100008480, symSize: 0x64 }
  - { offsetInCU: 0x276E3, offset: 0x276E3, size: 0x8, addend: 0x0, symName: __ZSt11__addressofIcEPT_RS0_, symObjAddr: 0x5314, symBinAddr: 0x10000846C, symSize: 0x14 }
  - { offsetInCU: 0x27719, offset: 0x27719, size: 0x8, addend: 0x0, symName: __ZNSt8_Rb_treeISt4pairIiiES1_St9_IdentityIS1_ESt4lessIS1_ESaIS1_EE14_M_insert_nodeEPSt18_Rb_tree_node_baseS9_PSt13_Rb_tree_nodeIS1_E, symObjAddr: 0x5244, symBinAddr: 0x10000839C, symSize: 0xD0 }
  - { offsetInCU: 0x27787, offset: 0x27787, size: 0x8, addend: 0x0, symName: __ZNSt17_Rb_tree_iteratorISt4pairIiiEEmmEv, symObjAddr: 0x5214, symBinAddr: 0x10000836C, symSize: 0x30 }
  - { offsetInCU: 0x2784B, offset: 0x2784B, size: 0x8, addend: 0x0, symName: __ZNSt4pairIPSt18_Rb_tree_node_baseS1_EC1IRPSt13_Rb_tree_nodeIS_IiiEERS1_Lb1EEEOT_OT0_, symObjAddr: 0x51CC, symBinAddr: 0x100008324, symSize: 0x48 }
  - { offsetInCU: 0x27845, offset: 0x27845, size: 0x8, addend: 0x0, symName: __ZSteqRKSt17_Rb_tree_iteratorISt4pairIiiEES4_, symObjAddr: 0x519C, symBinAddr: 0x1000082F4, symSize: 0x30 }
  - { offsetInCU: 0x27884, offset: 0x27884, size: 0x8, addend: 0x0, symName: __ZNSt8_Rb_treeISt4pairIiiES1_St9_IdentityIS1_ESt4lessIS1_ESaIS1_EE5beginEv, symObjAddr: 0x5174, symBinAddr: 0x1000082CC, symSize: 0x28 }
  - { offsetInCU: 0x278AE, offset: 0x278AE, size: 0x8, addend: 0x0, symName: __ZNSt8_Rb_treeISt4pairIiiES1_St9_IdentityIS1_ESt4lessIS1_ESaIS1_EE6_M_endEv, symObjAddr: 0x515C, symBinAddr: 0x1000082B4, symSize: 0x18 }
  - { offsetInCU: 0x278D8, offset: 0x278D8, size: 0x8, addend: 0x0, symName: __ZNSt8_Rb_treeISt4pairIiiES1_St9_IdentityIS1_ESt4lessIS1_ESaIS1_EE14_M_create_nodeIJS1_EEEPSt13_Rb_tree_nodeIS1_EDpOT_, symObjAddr: 0x511C, symBinAddr: 0x100008274, symSize: 0x40 }
  - { offsetInCU: 0x2792E, offset: 0x2792E, size: 0x8, addend: 0x0, symName: __ZNSt8_Rb_treeISt4pairIiiES0_IKS1_iESt10_Select1stIS3_ESt4lessIS1_ESaIS3_EE14_M_create_nodeIJRKSt21piecewise_construct_tSt5tupleIJOS1_EESE_IJEEEEEPSt13_Rb_tree_nodeIS3_EDpOT_, symObjAddr: 0x50AC, symBinAddr: 0x100008204, symSize: 0x70 }
  - { offsetInCU: 0x279FF, offset: 0x279FF, size: 0x8, addend: 0x0, symName: __ZNSt11_Tuple_implILm0EJOSt4pairIiiEEEC2IS1_EEOT_, symObjAddr: 0x5070, symBinAddr: 0x1000081C8, symSize: 0x3C }
  - { offsetInCU: 0x27A05, offset: 0x27A05, size: 0x8, addend: 0x0, symName: __ZNSt8_Rb_treeISt4pairIiiES1_St9_IdentityIS1_ESt4lessIS1_ESaIS1_EE8_S_rightEPKSt18_Rb_tree_node_base, symObjAddr: 0x5058, symBinAddr: 0x1000081B0, symSize: 0x18 }
  - { offsetInCU: 0x27A2F, offset: 0x27A2F, size: 0x8, addend: 0x0, symName: __ZNSt8_Rb_treeISt4pairIiiES1_St9_IdentityIS1_ESt4lessIS1_ESaIS1_EE7_S_leftEPKSt18_Rb_tree_node_base, symObjAddr: 0x5040, symBinAddr: 0x100008198, symSize: 0x18 }
  - { offsetInCU: 0x27A59, offset: 0x27A59, size: 0x8, addend: 0x0, symName: __ZNSt8_Rb_treeISt4pairIiiES1_St9_IdentityIS1_ESt4lessIS1_ESaIS1_EE6_S_keyEPKSt13_Rb_tree_nodeIS1_E, symObjAddr: 0x5018, symBinAddr: 0x100008170, symSize: 0x28 }
  - { offsetInCU: 0x27A87, offset: 0x27A87, size: 0x8, addend: 0x0, symName: __ZNSt8_Rb_treeISt4pairIiiES1_St9_IdentityIS1_ESt4lessIS1_ESaIS1_EE11_M_put_nodeEPSt13_Rb_tree_nodeIS1_E, symObjAddr: 0x4FCC, symBinAddr: 0x100008124, symSize: 0x4C }
  - { offsetInCU: 0x27AF8, offset: 0x27AF8, size: 0x8, addend: 0x0, symName: __ZNSt8_Rb_treeISt4pairIiiES1_St9_IdentityIS1_ESt4lessIS1_ESaIS1_EE15_M_destroy_nodeEPSt13_Rb_tree_nodeIS1_E, symObjAddr: 0x4F74, symBinAddr: 0x1000080CC, symSize: 0x58 }
  - { offsetInCU: 0x27B89, offset: 0x27B89, size: 0x8, addend: 0x0, symName: __ZSt8_DestroyIPcEvT_S1_, symObjAddr: 0x4F4C, symBinAddr: 0x1000080A4, symSize: 0x28 }
  - { offsetInCU: 0x27BCB, offset: 0x27BCB, size: 0x8, addend: 0x0, symName: __ZSt12__relocate_aIPcS0_SaIcEET0_T_S3_S2_RT1_, symObjAddr: 0x4EF0, symBinAddr: 0x100008048, symSize: 0x5C }
  - { offsetInCU: 0x27C43, offset: 0x27C43, size: 0x8, addend: 0x0, symName: __ZSt25__uninitialized_default_nIPcmET_S1_T0_, symObjAddr: 0x4EC4, symBinAddr: 0x10000801C, symSize: 0x2C }
  - { offsetInCU: 0x27CA5, offset: 0x27CA5, size: 0x8, addend: 0x0, symName: __ZNKSt12_Vector_baseIcSaIcEE19_M_get_Tp_allocatorEv, symObjAddr: 0x4EB0, symBinAddr: 0x100008008, symSize: 0x14 }
  - { offsetInCU: 0x27CCB, offset: 0x27CCB, size: 0x8, addend: 0x0, symName: __ZNSt6vectorIcSaIcEE11_S_max_sizeERKS0_, symObjAddr: 0x4E5C, symBinAddr: 0x100007FB4, symSize: 0x54 }
  - { offsetInCU: 0x27D82, offset: 0x27D82, size: 0x8, addend: 0x0, symName: __ZSt8_DestroyIPSt6vectorIcSaIcEEEvT_S4_, symObjAddr: 0x4E34, symBinAddr: 0x100007F8C, symSize: 0x28 }
  - { offsetInCU: 0x27DC4, offset: 0x27DC4, size: 0x8, addend: 0x0, symName: __ZSt12__relocate_aIPSt6vectorIcSaIcEES3_SaIS2_EET0_T_S6_S5_RT1_, symObjAddr: 0x4DD8, symBinAddr: 0x100007F30, symSize: 0x5C }
  - { offsetInCU: 0x27E60, offset: 0x27E60, size: 0x8, addend: 0x0, symName: __ZSt25__uninitialized_default_nIPSt6vectorIcSaIcEEmET_S4_T0_, symObjAddr: 0x4DAC, symBinAddr: 0x100007F04, symSize: 0x2C }
  - { offsetInCU: 0x27EC2, offset: 0x27EC2, size: 0x8, addend: 0x0, symName: __ZNKSt12_Vector_baseISt6vectorIcSaIcEESaIS2_EE19_M_get_Tp_allocatorEv, symObjAddr: 0x4D98, symBinAddr: 0x100007EF0, symSize: 0x14 }
  - { offsetInCU: 0x27EE8, offset: 0x27EE8, size: 0x8, addend: 0x0, symName: __ZNSt6vectorIS_IcSaIcEESaIS1_EE11_S_max_sizeERKS2_, symObjAddr: 0x4D3C, symBinAddr: 0x100007E94, symSize: 0x5C }
  - { offsetInCU: 0x27FA3, offset: 0x27FA3, size: 0x8, addend: 0x0, symName: __ZNSt8_Rb_treeISt4pairIiiES0_IKS1_iESt10_Select1stIS3_ESt4lessIS1_ESaIS3_EE14_M_insert_nodeEPSt18_Rb_tree_node_baseSB_PSt13_Rb_tree_nodeIS3_E, symObjAddr: 0x4C6C, symBinAddr: 0x100007DC4, symSize: 0xD0 }
  - { offsetInCU: 0x2800D, offset: 0x2800D, size: 0x8, addend: 0x0, symName: __ZNSt8_Rb_treeISt4pairIiiES0_IKS1_iESt10_Select1stIS3_ESt4lessIS1_ESaIS3_EE6_S_keyEPKSt13_Rb_tree_nodeIS3_E, symObjAddr: 0x4C44, symBinAddr: 0x100007D9C, symSize: 0x28 }
  - { offsetInCU: 0x2803B, offset: 0x2803B, size: 0x8, addend: 0x0, symName: __ZNSt17_Rb_tree_iteratorISt4pairIKS0_IiiEiEEppEv, symObjAddr: 0x4C14, symBinAddr: 0x100007D6C, symSize: 0x30 }
  - { offsetInCU: 0x28065, offset: 0x28065, size: 0x8, addend: 0x0, symName: __ZNSt17_Rb_tree_iteratorISt4pairIKS0_IiiEiEEmmEv, symObjAddr: 0x4BE4, symBinAddr: 0x100007D3C, symSize: 0x30 }
  - { offsetInCU: 0x2808F, offset: 0x2808F, size: 0x8, addend: 0x0, symName: __ZNSt8_Rb_treeISt4pairIiiES0_IKS1_iESt10_Select1stIS3_ESt4lessIS1_ESaIS3_EE11_M_leftmostEv, symObjAddr: 0x4BCC, symBinAddr: 0x100007D24, symSize: 0x18 }
  - { offsetInCU: 0x280B9, offset: 0x280B9, size: 0x8, addend: 0x0, symName: __ZNSt8_Rb_treeISt4pairIiiES0_IKS1_iESt10_Select1stIS3_ESt4lessIS1_ESaIS3_EE24_M_get_insert_unique_posERS2_, symObjAddr: 0x4A74, symBinAddr: 0x100007BCC, symSize: 0x158 }
  - { offsetInCU: 0x28139, offset: 0x28139, size: 0x8, addend: 0x0, symName: __ZNSt8_Rb_treeISt4pairIiiES0_IKS1_iESt10_Select1stIS3_ESt4lessIS1_ESaIS3_EE6_S_keyEPKSt18_Rb_tree_node_base, symObjAddr: 0x4A58, symBinAddr: 0x100007BB0, symSize: 0x1C }
  - { offsetInCU: 0x28167, offset: 0x28167, size: 0x8, addend: 0x0, symName: __ZNSt8_Rb_treeISt4pairIiiES0_IKS1_iESt10_Select1stIS3_ESt4lessIS1_ESaIS3_EE12_M_rightmostEv, symObjAddr: 0x4A40, symBinAddr: 0x100007B98, symSize: 0x18 }
  - { offsetInCU: 0x28191, offset: 0x28191, size: 0x8, addend: 0x0, symName: __ZNKSt8_Rb_treeISt4pairIiiES0_IKS1_iESt10_Select1stIS3_ESt4lessIS1_ESaIS3_EE4sizeEv, symObjAddr: 0x4A28, symBinAddr: 0x100007B80, symSize: 0x18 }
  - { offsetInCU: 0x281BB, offset: 0x281BB, size: 0x8, addend: 0x0, symName: __ZNKSt23_Rb_tree_const_iteratorISt4pairIKS0_IiiEiEE13_M_const_castEv, symObjAddr: 0x4A00, symBinAddr: 0x100007B58, symSize: 0x28 }
  - { offsetInCU: 0x281E5, offset: 0x281E5, size: 0x8, addend: 0x0, symName: __ZNSt8_Rb_treeISt4pairIiiES0_IKS1_iESt10_Select1stIS3_ESt4lessIS1_ESaIS3_EE14_M_create_nodeIJRKSt21piecewise_construct_tSt5tupleIJRS2_EESE_IJEEEEEPSt13_Rb_tree_nodeIS3_EDpOT_, symObjAddr: 0x4990, symBinAddr: 0x100007AE8, symSize: 0x70 }
  - { offsetInCU: 0x28257, offset: 0x28257, size: 0x8, addend: 0x0, symName: __ZN9__gnu_cxx16__aligned_membufISt4pairIKS1_IiiEiEE6_M_ptrEv, symObjAddr: 0x4974, symBinAddr: 0x100007ACC, symSize: 0x1C }
  - { offsetInCU: 0x28281, offset: 0x28281, size: 0x8, addend: 0x0, symName: __ZNSt8_Rb_treeISt4pairIiiES0_IKS1_iESt10_Select1stIS3_ESt4lessIS1_ESaIS3_EE14_M_lower_boundEPSt13_Rb_tree_nodeIS3_EPSt18_Rb_tree_node_baseRS2_, symObjAddr: 0x48D8, symBinAddr: 0x100007A30, symSize: 0x9C }
  - { offsetInCU: 0x282DE, offset: 0x282DE, size: 0x8, addend: 0x0, symName: __ZNSt8_Rb_treeISt4pairIiiES0_IKS1_iESt10_Select1stIS3_ESt4lessIS1_ESaIS3_EE6_M_endEv, symObjAddr: 0x48C0, symBinAddr: 0x100007A18, symSize: 0x18 }
  - { offsetInCU: 0x28308, offset: 0x28308, size: 0x8, addend: 0x0, symName: __ZNSt8_Rb_treeISt4pairIiiES0_IKS1_S1_ESt10_Select1stIS3_ESt4lessIS1_ESaIS3_EE14_M_insert_nodeEPSt18_Rb_tree_node_baseSB_PSt13_Rb_tree_nodeIS3_E, symObjAddr: 0x47F0, symBinAddr: 0x100007948, symSize: 0xD0 }
  - { offsetInCU: 0x28372, offset: 0x28372, size: 0x8, addend: 0x0, symName: __ZNSt8_Rb_treeISt4pairIiiES0_IKS1_S1_ESt10_Select1stIS3_ESt4lessIS1_ESaIS3_EE6_S_keyEPKSt13_Rb_tree_nodeIS3_E, symObjAddr: 0x47C8, symBinAddr: 0x100007920, symSize: 0x28 }
  - { offsetInCU: 0x283A0, offset: 0x283A0, size: 0x8, addend: 0x0, symName: __ZNSt17_Rb_tree_iteratorISt4pairIKS0_IiiES1_EEppEv, symObjAddr: 0x4798, symBinAddr: 0x1000078F0, symSize: 0x30 }
  - { offsetInCU: 0x283CA, offset: 0x283CA, size: 0x8, addend: 0x0, symName: __ZNSt17_Rb_tree_iteratorISt4pairIKS0_IiiES1_EEmmEv, symObjAddr: 0x4768, symBinAddr: 0x1000078C0, symSize: 0x30 }
  - { offsetInCU: 0x28476, offset: 0x28476, size: 0x8, addend: 0x0, symName: __ZNSt4pairIPSt18_Rb_tree_node_baseS1_EC1IRS1_S4_Lb1EEEOT_OT0_, symObjAddr: 0x4720, symBinAddr: 0x100007878, symSize: 0x48 }
  - { offsetInCU: 0x28486, offset: 0x28486, size: 0x8, addend: 0x0, symName: __ZNSt8_Rb_treeISt4pairIiiES0_IKS1_S1_ESt10_Select1stIS3_ESt4lessIS1_ESaIS3_EE11_M_leftmostEv, symObjAddr: 0x4708, symBinAddr: 0x100007860, symSize: 0x18 }
  - { offsetInCU: 0x284B0, offset: 0x284B0, size: 0x8, addend: 0x0, symName: __ZNSt8_Rb_treeISt4pairIiiES0_IKS1_S1_ESt10_Select1stIS3_ESt4lessIS1_ESaIS3_EE24_M_get_insert_unique_posERS2_, symObjAddr: 0x45B0, symBinAddr: 0x100007708, symSize: 0x158 }
  - { offsetInCU: 0x285B6, offset: 0x285B6, size: 0x8, addend: 0x0, symName: __ZNSt4pairIPSt18_Rb_tree_node_baseS1_EC1IS1_S1_Lb1EEERKS1_S5_, symObjAddr: 0x4574, symBinAddr: 0x1000076CC, symSize: 0x3C }
  - { offsetInCU: 0x285C2, offset: 0x285C2, size: 0x8, addend: 0x0, symName: __ZNSt8_Rb_treeISt4pairIiiES0_IKS1_S1_ESt10_Select1stIS3_ESt4lessIS1_ESaIS3_EE6_S_keyEPKSt18_Rb_tree_node_base, symObjAddr: 0x4558, symBinAddr: 0x1000076B0, symSize: 0x1C }
  - { offsetInCU: 0x285F0, offset: 0x285F0, size: 0x8, addend: 0x0, symName: __ZNSt8_Rb_treeISt4pairIiiES0_IKS1_S1_ESt10_Select1stIS3_ESt4lessIS1_ESaIS3_EE12_M_rightmostEv, symObjAddr: 0x4540, symBinAddr: 0x100007698, symSize: 0x18 }
  - { offsetInCU: 0x2861A, offset: 0x2861A, size: 0x8, addend: 0x0, symName: __ZNKSt8_Rb_treeISt4pairIiiES0_IKS1_S1_ESt10_Select1stIS3_ESt4lessIS1_ESaIS3_EE4sizeEv, symObjAddr: 0x4528, symBinAddr: 0x100007680, symSize: 0x18 }
  - { offsetInCU: 0x28644, offset: 0x28644, size: 0x8, addend: 0x0, symName: __ZNKSt23_Rb_tree_const_iteratorISt4pairIKS0_IiiES1_EE13_M_const_castEv, symObjAddr: 0x4500, symBinAddr: 0x100007658, symSize: 0x28 }
  - { offsetInCU: 0x2866E, offset: 0x2866E, size: 0x8, addend: 0x0, symName: __ZNSt8_Rb_treeISt4pairIiiES0_IKS1_S1_ESt10_Select1stIS3_ESt4lessIS1_ESaIS3_EE14_M_create_nodeIJRKSt21piecewise_construct_tSt5tupleIJRS2_EESE_IJEEEEEPSt13_Rb_tree_nodeIS3_EDpOT_, symObjAddr: 0x4490, symBinAddr: 0x1000075E8, symSize: 0x70 }
  - { offsetInCU: 0x28732, offset: 0x28732, size: 0x8, addend: 0x0, symName: __ZNSt10_Head_baseILm0ERKSt4pairIiiELb0EEC2ES3_, symObjAddr: 0x446C, symBinAddr: 0x1000075C4, symSize: 0x24 }
  - { offsetInCU: 0x28736, offset: 0x28736, size: 0x8, addend: 0x0, symName: __ZN9__gnu_cxx16__aligned_membufISt4pairIKS1_IiiES2_EE6_M_ptrEv, symObjAddr: 0x4450, symBinAddr: 0x1000075A8, symSize: 0x1C }
  - { offsetInCU: 0x28760, offset: 0x28760, size: 0x8, addend: 0x0, symName: __ZNSt8_Rb_treeISt4pairIiiES0_IKS1_S1_ESt10_Select1stIS3_ESt4lessIS1_ESaIS3_EE14_M_lower_boundEPSt13_Rb_tree_nodeIS3_EPSt18_Rb_tree_node_baseRS2_, symObjAddr: 0x43B4, symBinAddr: 0x10000750C, symSize: 0x9C }
  - { offsetInCU: 0x287BD, offset: 0x287BD, size: 0x8, addend: 0x0, symName: __ZNSt8_Rb_treeISt4pairIiiES0_IKS1_S1_ESt10_Select1stIS3_ESt4lessIS1_ESaIS3_EE6_M_endEv, symObjAddr: 0x439C, symBinAddr: 0x1000074F4, symSize: 0x18 }
  - { offsetInCU: 0x287E7, offset: 0x287E7, size: 0x8, addend: 0x0, symName: __ZNSt8_Rb_treeISt4pairIiiES0_IKS1_iESt10_Select1stIS3_ESt4lessIS1_ESaIS3_EE11_M_put_nodeEPSt13_Rb_tree_nodeIS3_E, symObjAddr: 0x4350, symBinAddr: 0x1000074A8, symSize: 0x4C }
  - { offsetInCU: 0x28858, offset: 0x28858, size: 0x8, addend: 0x0, symName: __ZNSt8_Rb_treeISt4pairIiiES0_IKS1_iESt10_Select1stIS3_ESt4lessIS1_ESaIS3_EE15_M_destroy_nodeEPSt13_Rb_tree_nodeIS3_E, symObjAddr: 0x42F8, symBinAddr: 0x100007450, symSize: 0x58 }
  - { offsetInCU: 0x288ED, offset: 0x288ED, size: 0x8, addend: 0x0, symName: __ZNSt8_Rb_treeISt4pairIiiES0_IKS1_S1_ESt10_Select1stIS3_ESt4lessIS1_ESaIS3_EE11_M_put_nodeEPSt13_Rb_tree_nodeIS3_E, symObjAddr: 0x42AC, symBinAddr: 0x100007404, symSize: 0x4C }
  - { offsetInCU: 0x2895E, offset: 0x2895E, size: 0x8, addend: 0x0, symName: __ZNSt8_Rb_treeISt4pairIiiES0_IKS1_S1_ESt10_Select1stIS3_ESt4lessIS1_ESaIS3_EE15_M_destroy_nodeEPSt13_Rb_tree_nodeIS3_E, symObjAddr: 0x4254, symBinAddr: 0x1000073AC, symSize: 0x58 }
  - { offsetInCU: 0x289F3, offset: 0x289F3, size: 0x8, addend: 0x0, symName: __ZNSt15__new_allocatorISt6vectorIcSaIcEEE10deallocateEPS2_m, symObjAddr: 0x4218, symBinAddr: 0x100007370, symSize: 0x3C }
  - { offsetInCU: 0x28A61, offset: 0x28A61, size: 0x8, addend: 0x0, symName: __ZNSt15__new_allocatorIcE10deallocateEPcm, symObjAddr: 0x41F0, symBinAddr: 0x100007348, symSize: 0x28 }
  - { offsetInCU: 0x28B35, offset: 0x28B35, size: 0x8, addend: 0x0, symName: __ZNSt23_Rb_tree_const_iteratorISt4pairIiiEEC1ERKSt17_Rb_tree_iteratorIS1_E, symObjAddr: 0x41C8, symBinAddr: 0x100007320, symSize: 0x28 }
  - { offsetInCU: 0x28B1F, offset: 0x28B1F, size: 0x8, addend: 0x0, symName: __ZSt7forwardISt17_Rb_tree_iteratorISt4pairIiiEEEOT_RNSt16remove_referenceIS4_E4typeE, symObjAddr: 0x41B4, symBinAddr: 0x10000730C, symSize: 0x14 }
  - { offsetInCU: 0x28BB9, offset: 0x28BB9, size: 0x8, addend: 0x0, symName: __ZNSt17_Rb_tree_iteratorISt4pairIiiEEC1EPSt18_Rb_tree_node_base, symObjAddr: 0x4190, symBinAddr: 0x1000072E8, symSize: 0x24 }
  - { offsetInCU: 0x28C2F, offset: 0x28C2F, size: 0x8, addend: 0x0, symName: __ZNSt4pairISt17_Rb_tree_iteratorIS_IiiEEbEC1IS2_bLb1EEEOT_OT0_, symObjAddr: 0x4144, symBinAddr: 0x10000729C, symSize: 0x4C }
  - { offsetInCU: 0x28C3E, offset: 0x28C3E, size: 0x8, addend: 0x0, symName: __ZNSt8_Rb_treeISt4pairIiiES1_St9_IdentityIS1_ESt4lessIS1_ESaIS1_EE10_Auto_node9_M_insertES0_IPSt18_Rb_tree_node_baseSA_E, symObjAddr: 0x40F8, symBinAddr: 0x100007250, symSize: 0x4C }
  - { offsetInCU: 0x28C8A, offset: 0x28C8A, size: 0x8, addend: 0x0, symName: __ZNKSt8_Rb_treeISt4pairIiiES1_St9_IdentityIS1_ESt4lessIS1_ESaIS1_EE10_Auto_node6_M_keyEv, symObjAddr: 0x40D8, symBinAddr: 0x100007230, symSize: 0x20 }
  - { offsetInCU: 0x28CB4, offset: 0x28CB4, size: 0x8, addend: 0x0, symName: __ZNSt8_Rb_treeISt4pairIiiES1_St9_IdentityIS1_ESt4lessIS1_ESaIS1_EE24_M_get_insert_unique_posERKS1_, symObjAddr: 0x3F80, symBinAddr: 0x1000070D8, symSize: 0x158 }
  - { offsetInCU: 0x28DAB, offset: 0x28DAB, size: 0x8, addend: 0x0, symName: __ZNSt8_Rb_treeISt4pairIiiES1_St9_IdentityIS1_ESt4lessIS1_ESaIS1_EE10_Auto_nodeD1Ev, symObjAddr: 0x3F3C, symBinAddr: 0x100007094, symSize: 0x44 }
  - { offsetInCU: 0x28E1F, offset: 0x28E1F, size: 0x8, addend: 0x0, symName: __ZNSt8_Rb_treeISt4pairIiiES1_St9_IdentityIS1_ESt4lessIS1_ESaIS1_EE10_Auto_nodeC1IJS1_EEERS7_DpOT_, symObjAddr: 0x3EF0, symBinAddr: 0x100007048, symSize: 0x4C }
  - { offsetInCU: 0x28EF4, offset: 0x28EF4, size: 0x8, addend: 0x0, symName: __ZNSt8_Rb_treeISt4pairIiiES0_IKS1_iESt10_Select1stIS3_ESt4lessIS1_ESaIS3_EE10_Auto_nodeC1IJRKSt21piecewise_construct_tSt5tupleIJOS1_EESF_IJEEEEERS9_DpOT_, symObjAddr: 0x3E74, symBinAddr: 0x100006FCC, symSize: 0x7C }
  - { offsetInCU: 0x28EC6, offset: 0x28EC6, size: 0x8, addend: 0x0, symName: __ZSt7forwardISt5tupleIJOSt4pairIiiEEEEOT_RNSt16remove_referenceIS5_E4typeE, symObjAddr: 0x3E60, symBinAddr: 0x100006FB8, symSize: 0x14 }
  - { offsetInCU: 0x28F66, offset: 0x28F66, size: 0x8, addend: 0x0, symName: __ZNSt5tupleIJOSt4pairIiiEEEC1IJS1_ELb1ELb1EEEDpOT_, symObjAddr: 0x3E24, symBinAddr: 0x100006F7C, symSize: 0x3C }
  - { offsetInCU: 0x28FED, offset: 0x28FED, size: 0x8, addend: 0x0, symName: __ZNSt23_Rb_tree_const_iteratorISt4pairIiiEEC1EPKSt18_Rb_tree_node_base, symObjAddr: 0x3E00, symBinAddr: 0x100006F58, symSize: 0x24 }
  - { offsetInCU: 0x28FD5, offset: 0x28FD5, size: 0x8, addend: 0x0, symName: __ZNSt8_Rb_treeISt4pairIiiES1_St9_IdentityIS1_ESt4lessIS1_ESaIS1_EE6_S_keyEPKSt18_Rb_tree_node_base, symObjAddr: 0x3DE4, symBinAddr: 0x100006F3C, symSize: 0x1C }
  - { offsetInCU: 0x29003, offset: 0x29003, size: 0x8, addend: 0x0, symName: __ZNKSt8_Rb_treeISt4pairIiiES1_St9_IdentityIS1_ESt4lessIS1_ESaIS1_EE14_M_lower_boundEPKSt13_Rb_tree_nodeIS1_EPKSt18_Rb_tree_node_baseRKS1_, symObjAddr: 0x3D48, symBinAddr: 0x100006EA0, symSize: 0x9C }
  - { offsetInCU: 0x29060, offset: 0x29060, size: 0x8, addend: 0x0, symName: __ZNKSt8_Rb_treeISt4pairIiiES1_St9_IdentityIS1_ESt4lessIS1_ESaIS1_EE6_M_endEv, symObjAddr: 0x3D30, symBinAddr: 0x100006E88, symSize: 0x18 }
  - { offsetInCU: 0x2908A, offset: 0x2908A, size: 0x8, addend: 0x0, symName: __ZNKSt8_Rb_treeISt4pairIiiES1_St9_IdentityIS1_ESt4lessIS1_ESaIS1_EE8_M_beginEv, symObjAddr: 0x3D18, symBinAddr: 0x100006E70, symSize: 0x18 }
  - { offsetInCU: 0x290B4, offset: 0x290B4, size: 0x8, addend: 0x0, symName: __ZNKSt8_Rb_treeISt4pairIiiES1_St9_IdentityIS1_ESt4lessIS1_ESaIS1_EE9_M_mbeginEv, symObjAddr: 0x3D00, symBinAddr: 0x100006E58, symSize: 0x18 }
  - { offsetInCU: 0x290DE, offset: 0x290DE, size: 0x8, addend: 0x0, symName: __ZNSt8_Rb_treeISt4pairIiiES1_St9_IdentityIS1_ESt4lessIS1_ESaIS1_EE12_M_drop_nodeEPSt13_Rb_tree_nodeIS1_E, symObjAddr: 0x3CCC, symBinAddr: 0x100006E24, symSize: 0x34 }
  - { offsetInCU: 0x29115, offset: 0x29115, size: 0x8, addend: 0x0, symName: __ZNSt8_Rb_treeISt4pairIiiES1_St9_IdentityIS1_ESt4lessIS1_ESaIS1_EE7_S_leftEPSt18_Rb_tree_node_base, symObjAddr: 0x3CB4, symBinAddr: 0x100006E0C, symSize: 0x18 }
  - { offsetInCU: 0x2913F, offset: 0x2913F, size: 0x8, addend: 0x0, symName: __ZNSt8_Rb_treeISt4pairIiiES1_St9_IdentityIS1_ESt4lessIS1_ESaIS1_EE8_S_rightEPSt18_Rb_tree_node_base, symObjAddr: 0x3C9C, symBinAddr: 0x100006DF4, symSize: 0x18 }
  - { offsetInCU: 0x291BA, offset: 0x291BA, size: 0x8, addend: 0x0, symName: __ZNSt6vectorIcSaIcEE11_S_relocateEPcS2_S2_RS0_, symObjAddr: 0x3C68, symBinAddr: 0x100006DC0, symSize: 0x34 }
  - { offsetInCU: 0x2921B, offset: 0x2921B, size: 0x8, addend: 0x0, symName: __ZNSt12_Vector_baseIcSaIcEE11_M_allocateEm, symObjAddr: 0x3C18, symBinAddr: 0x100006D70, symSize: 0x50 }
  - { offsetInCU: 0x29283, offset: 0x29283, size: 0x8, addend: 0x0, symName: __ZNKSt6vectorIcSaIcEE12_M_check_lenEmPKc, symObjAddr: 0x3B48, symBinAddr: 0x100006CA0, symSize: 0xD0 }
  - { offsetInCU: 0x292DC, offset: 0x292DC, size: 0x8, addend: 0x0, symName: __ZSt27__uninitialized_default_n_aIPcmcET_S1_T0_RSaIT1_E, symObjAddr: 0x3B20, symBinAddr: 0x100006C78, symSize: 0x28 }
  - { offsetInCU: 0x2933F, offset: 0x2933F, size: 0x8, addend: 0x0, symName: __ZNSt12_Vector_baseIcSaIcEE19_M_get_Tp_allocatorEv, symObjAddr: 0x3B0C, symBinAddr: 0x100006C64, symSize: 0x14 }
  - { offsetInCU: 0x29369, offset: 0x29369, size: 0x8, addend: 0x0, symName: __ZNKSt6vectorIcSaIcEE8max_sizeEv, symObjAddr: 0x3AEC, symBinAddr: 0x100006C44, symSize: 0x20 }
  - { offsetInCU: 0x293CA, offset: 0x293CA, size: 0x8, addend: 0x0, symName: __ZNSt6vectorIS_IcSaIcEESaIS1_EE11_S_relocateEPS1_S4_S4_RS2_, symObjAddr: 0x3AB8, symBinAddr: 0x100006C10, symSize: 0x34 }
  - { offsetInCU: 0x2942B, offset: 0x2942B, size: 0x8, addend: 0x0, symName: __ZNSt12_Vector_baseISt6vectorIcSaIcEESaIS2_EE11_M_allocateEm, symObjAddr: 0x3A68, symBinAddr: 0x100006BC0, symSize: 0x50 }
  - { offsetInCU: 0x29493, offset: 0x29493, size: 0x8, addend: 0x0, symName: __ZNKSt6vectorIS_IcSaIcEESaIS1_EE12_M_check_lenEmPKc, symObjAddr: 0x3998, symBinAddr: 0x100006AF0, symSize: 0xD0 }
  - { offsetInCU: 0x294EC, offset: 0x294EC, size: 0x8, addend: 0x0, symName: __ZSt27__uninitialized_default_n_aIPSt6vectorIcSaIcEEmS2_ET_S4_T0_RSaIT1_E, symObjAddr: 0x3970, symBinAddr: 0x100006AC8, symSize: 0x28 }
  - { offsetInCU: 0x2954F, offset: 0x2954F, size: 0x8, addend: 0x0, symName: __ZNSt12_Vector_baseISt6vectorIcSaIcEESaIS2_EE19_M_get_Tp_allocatorEv, symObjAddr: 0x395C, symBinAddr: 0x100006AB4, symSize: 0x14 }
  - { offsetInCU: 0x29579, offset: 0x29579, size: 0x8, addend: 0x0, symName: __ZNKSt6vectorIS_IcSaIcEESaIS1_EE8max_sizeEv, symObjAddr: 0x393C, symBinAddr: 0x100006A94, symSize: 0x20 }
  - { offsetInCU: 0x2959F, offset: 0x2959F, size: 0x8, addend: 0x0, symName: __ZSt4swapIiENSt9enable_ifIXsrSt6__and_IJSt6__not_ISt15__is_tuple_likeIT_EESt21is_move_constructibleIS4_ESt18is_move_assignableIS4_EEE5valueEvE4typeERS4_SE_, symObjAddr: 0x38E8, symBinAddr: 0x100006A40, symSize: 0x54 }
  - { offsetInCU: 0x295F8, offset: 0x295F8, size: 0x8, addend: 0x0, symName: __ZSt4moveIRiEONSt16remove_referenceIT_E4typeEOS2_, symObjAddr: 0x38D4, symBinAddr: 0x100006A2C, symSize: 0x14 }
  - { offsetInCU: 0x29699, offset: 0x29699, size: 0x8, addend: 0x0, symName: __ZNSt17_Rb_tree_iteratorISt4pairIKS0_IiiEiEEC1EPSt18_Rb_tree_node_base, symObjAddr: 0x38B0, symBinAddr: 0x100006A08, symSize: 0x24 }
  - { offsetInCU: 0x29685, offset: 0x29685, size: 0x8, addend: 0x0, symName: __ZNSt8_Rb_treeISt4pairIiiES0_IKS1_iESt10_Select1stIS3_ESt4lessIS1_ESaIS3_EE10_Auto_node9_M_insertES0_IPSt18_Rb_tree_node_baseSC_E, symObjAddr: 0x3864, symBinAddr: 0x1000069BC, symSize: 0x4C }
  - { offsetInCU: 0x296D1, offset: 0x296D1, size: 0x8, addend: 0x0, symName: __ZNKSt8_Rb_treeISt4pairIiiES0_IKS1_iESt10_Select1stIS3_ESt4lessIS1_ESaIS3_EE10_Auto_node6_M_keyEv, symObjAddr: 0x3844, symBinAddr: 0x10000699C, symSize: 0x20 }
  - { offsetInCU: 0x296FB, offset: 0x296FB, size: 0x8, addend: 0x0, symName: __ZNSt8_Rb_treeISt4pairIiiES0_IKS1_iESt10_Select1stIS3_ESt4lessIS1_ESaIS3_EE29_M_get_insert_hint_unique_posESt23_Rb_tree_const_iteratorIS3_ERS2_, symObjAddr: 0x3520, symBinAddr: 0x100006678, symSize: 0x324 }
  - { offsetInCU: 0x29822, offset: 0x29822, size: 0x8, addend: 0x0, symName: __ZNSt8_Rb_treeISt4pairIiiES0_IKS1_iESt10_Select1stIS3_ESt4lessIS1_ESaIS3_EE10_Auto_nodeD1Ev, symObjAddr: 0x34DC, symBinAddr: 0x100006634, symSize: 0x44 }
  - { offsetInCU: 0x298D9, offset: 0x298D9, size: 0x8, addend: 0x0, symName: __ZNSt8_Rb_treeISt4pairIiiES0_IKS1_iESt10_Select1stIS3_ESt4lessIS1_ESaIS3_EE10_Auto_nodeC1IJRKSt21piecewise_construct_tSt5tupleIJRS2_EESF_IJEEEEERS9_DpOT_, symObjAddr: 0x3460, symBinAddr: 0x1000065B8, symSize: 0x7C }
  - { offsetInCU: 0x298A9, offset: 0x298A9, size: 0x8, addend: 0x0, symName: __ZNSt13_Rb_tree_nodeISt4pairIKS0_IiiEiEE9_M_valptrEv, symObjAddr: 0x3440, symBinAddr: 0x100006598, symSize: 0x20 }
  - { offsetInCU: 0x298D3, offset: 0x298D3, size: 0x8, addend: 0x0, symName: __ZNKSt8_Rb_treeISt4pairIiiES0_IKS1_iESt10_Select1stIS3_ESt4lessIS1_ESaIS3_EE8key_compEv, symObjAddr: 0x3428, symBinAddr: 0x100006580, symSize: 0x18 }
  - { offsetInCU: 0x298FD, offset: 0x298FD, size: 0x8, addend: 0x0, symName: __ZNSt8_Rb_treeISt4pairIiiES0_IKS1_iESt10_Select1stIS3_ESt4lessIS1_ESaIS3_EE3endEv, symObjAddr: 0x3400, symBinAddr: 0x100006558, symSize: 0x28 }
  - { offsetInCU: 0x29927, offset: 0x29927, size: 0x8, addend: 0x0, symName: __ZNSt8_Rb_treeISt4pairIiiES0_IKS1_iESt10_Select1stIS3_ESt4lessIS1_ESaIS3_EE11lower_boundERS2_, symObjAddr: 0x33B8, symBinAddr: 0x100006510, symSize: 0x48 }
  - { offsetInCU: 0x299CF, offset: 0x299CF, size: 0x8, addend: 0x0, symName: __ZNSt17_Rb_tree_iteratorISt4pairIKS0_IiiES1_EEC1EPSt18_Rb_tree_node_base, symObjAddr: 0x3394, symBinAddr: 0x1000064EC, symSize: 0x24 }
  - { offsetInCU: 0x299B9, offset: 0x299B9, size: 0x8, addend: 0x0, symName: __ZNSt8_Rb_treeISt4pairIiiES0_IKS1_S1_ESt10_Select1stIS3_ESt4lessIS1_ESaIS3_EE10_Auto_node9_M_insertES0_IPSt18_Rb_tree_node_baseSC_E, symObjAddr: 0x3348, symBinAddr: 0x1000064A0, symSize: 0x4C }
  - { offsetInCU: 0x29A05, offset: 0x29A05, size: 0x8, addend: 0x0, symName: __ZNKSt8_Rb_treeISt4pairIiiES0_IKS1_S1_ESt10_Select1stIS3_ESt4lessIS1_ESaIS3_EE10_Auto_node6_M_keyEv, symObjAddr: 0x3328, symBinAddr: 0x100006480, symSize: 0x20 }
  - { offsetInCU: 0x29A2F, offset: 0x29A2F, size: 0x8, addend: 0x0, symName: __ZNSt8_Rb_treeISt4pairIiiES0_IKS1_S1_ESt10_Select1stIS3_ESt4lessIS1_ESaIS3_EE29_M_get_insert_hint_unique_posESt23_Rb_tree_const_iteratorIS3_ERS2_, symObjAddr: 0x3004, symBinAddr: 0x10000615C, symSize: 0x324 }
  - { offsetInCU: 0x29B58, offset: 0x29B58, size: 0x8, addend: 0x0, symName: __ZNSt8_Rb_treeISt4pairIiiES0_IKS1_S1_ESt10_Select1stIS3_ESt4lessIS1_ESaIS3_EE10_Auto_nodeD1Ev, symObjAddr: 0x2FC0, symBinAddr: 0x100006118, symSize: 0x44 }
  - { offsetInCU: 0x29C0F, offset: 0x29C0F, size: 0x8, addend: 0x0, symName: __ZNSt8_Rb_treeISt4pairIiiES0_IKS1_S1_ESt10_Select1stIS3_ESt4lessIS1_ESaIS3_EE10_Auto_nodeC1IJRKSt21piecewise_construct_tSt5tupleIJRS2_EESF_IJEEEEERS9_DpOT_, symObjAddr: 0x2F44, symBinAddr: 0x10000609C, symSize: 0x7C }
  - { offsetInCU: 0x29BDF, offset: 0x29BDF, size: 0x8, addend: 0x0, symName: __ZSt7forwardISt5tupleIJEEEOT_RNSt16remove_referenceIS2_E4typeE, symObjAddr: 0x2F30, symBinAddr: 0x100006088, symSize: 0x14 }
  - { offsetInCU: 0x29C17, offset: 0x29C17, size: 0x8, addend: 0x0, symName: __ZSt7forwardISt5tupleIJRKSt4pairIiiEEEEOT_RNSt16remove_referenceIS6_E4typeE, symObjAddr: 0x2F1C, symBinAddr: 0x100006074, symSize: 0x14 }
  - { offsetInCU: 0x29C4F, offset: 0x29C4F, size: 0x8, addend: 0x0, symName: __ZSt7forwardIRKSt21piecewise_construct_tEOT_RNSt16remove_referenceIS3_E4typeE, symObjAddr: 0x2F08, symBinAddr: 0x100006060, symSize: 0x14 }
  - { offsetInCU: 0x29CD7, offset: 0x29CD7, size: 0x8, addend: 0x0, symName: __ZNSt11_Tuple_implILm0EJRKSt4pairIiiEEEC2ES3_, symObjAddr: 0x2EE0, symBinAddr: 0x100006038, symSize: 0x28 }
  - { offsetInCU: 0x29CD8, offset: 0x29CD8, size: 0x8, addend: 0x0, symName: __ZStltIiiEbRKSt4pairIT_T0_ES5_, symObjAddr: 0x2E78, symBinAddr: 0x100005FD0, symSize: 0x68 }
  - { offsetInCU: 0x29D29, offset: 0x29D29, size: 0x8, addend: 0x0, symName: __ZNSt13_Rb_tree_nodeISt4pairIKS0_IiiES1_EE9_M_valptrEv, symObjAddr: 0x2E58, symBinAddr: 0x100005FB0, symSize: 0x20 }
  - { offsetInCU: 0x29D53, offset: 0x29D53, size: 0x8, addend: 0x0, symName: __ZNKSt8_Rb_treeISt4pairIiiES0_IKS1_S1_ESt10_Select1stIS3_ESt4lessIS1_ESaIS3_EE8key_compEv, symObjAddr: 0x2E40, symBinAddr: 0x100005F98, symSize: 0x18 }
  - { offsetInCU: 0x29D7D, offset: 0x29D7D, size: 0x8, addend: 0x0, symName: __ZNSt8_Rb_treeISt4pairIiiES0_IKS1_S1_ESt10_Select1stIS3_ESt4lessIS1_ESaIS3_EE3endEv, symObjAddr: 0x2E18, symBinAddr: 0x100005F70, symSize: 0x28 }
  - { offsetInCU: 0x29DA7, offset: 0x29DA7, size: 0x8, addend: 0x0, symName: __ZNSt8_Rb_treeISt4pairIiiES0_IKS1_S1_ESt10_Select1stIS3_ESt4lessIS1_ESaIS3_EE11lower_boundERS2_, symObjAddr: 0x2DD0, symBinAddr: 0x100005F28, symSize: 0x48 }
  - { offsetInCU: 0x29DE2, offset: 0x29DE2, size: 0x8, addend: 0x0, symName: __ZNKSt8_Rb_treeISt4pairIiiES0_IKS1_iESt10_Select1stIS3_ESt4lessIS1_ESaIS3_EE9_M_mbeginEv, symObjAddr: 0x2DB8, symBinAddr: 0x100005F10, symSize: 0x18 }
  - { offsetInCU: 0x29E0C, offset: 0x29E0C, size: 0x8, addend: 0x0, symName: __ZNSt8_Rb_treeISt4pairIiiES0_IKS1_iESt10_Select1stIS3_ESt4lessIS1_ESaIS3_EE12_M_drop_nodeEPSt13_Rb_tree_nodeIS3_E, symObjAddr: 0x2D84, symBinAddr: 0x100005EDC, symSize: 0x34 }
  - { offsetInCU: 0x29E43, offset: 0x29E43, size: 0x8, addend: 0x0, symName: __ZNSt8_Rb_treeISt4pairIiiES0_IKS1_iESt10_Select1stIS3_ESt4lessIS1_ESaIS3_EE7_S_leftEPSt18_Rb_tree_node_base, symObjAddr: 0x2D6C, symBinAddr: 0x100005EC4, symSize: 0x18 }
  - { offsetInCU: 0x29E6D, offset: 0x29E6D, size: 0x8, addend: 0x0, symName: __ZNSt8_Rb_treeISt4pairIiiES0_IKS1_iESt10_Select1stIS3_ESt4lessIS1_ESaIS3_EE8_S_rightEPSt18_Rb_tree_node_base, symObjAddr: 0x2D54, symBinAddr: 0x100005EAC, symSize: 0x18 }
  - { offsetInCU: 0x29EB1, offset: 0x29EB1, size: 0x8, addend: 0x0, symName: __ZNKSt8_Rb_treeISt4pairIiiES0_IKS1_S1_ESt10_Select1stIS3_ESt4lessIS1_ESaIS3_EE9_M_mbeginEv, symObjAddr: 0x2D3C, symBinAddr: 0x100005E94, symSize: 0x18 }
  - { offsetInCU: 0x29EDB, offset: 0x29EDB, size: 0x8, addend: 0x0, symName: __ZNSt8_Rb_treeISt4pairIiiES0_IKS1_S1_ESt10_Select1stIS3_ESt4lessIS1_ESaIS3_EE12_M_drop_nodeEPSt13_Rb_tree_nodeIS3_E, symObjAddr: 0x2D08, symBinAddr: 0x100005E60, symSize: 0x34 }
  - { offsetInCU: 0x29F12, offset: 0x29F12, size: 0x8, addend: 0x0, symName: __ZNSt8_Rb_treeISt4pairIiiES0_IKS1_S1_ESt10_Select1stIS3_ESt4lessIS1_ESaIS3_EE7_S_leftEPSt18_Rb_tree_node_base, symObjAddr: 0x2CF0, symBinAddr: 0x100005E48, symSize: 0x18 }
  - { offsetInCU: 0x29F3C, offset: 0x29F3C, size: 0x8, addend: 0x0, symName: __ZNSt8_Rb_treeISt4pairIiiES0_IKS1_S1_ESt10_Select1stIS3_ESt4lessIS1_ESaIS3_EE8_S_rightEPSt18_Rb_tree_node_base, symObjAddr: 0x2CD8, symBinAddr: 0x100005E30, symSize: 0x18 }
  - { offsetInCU: 0x2A033, offset: 0x2A033, size: 0x8, addend: 0x0, symName: __ZNSt8_Rb_treeISt4pairIiiES0_IKS1_iESt10_Select1stIS3_ESt4lessIS1_ESaIS3_EE5clearEv, symObjAddr: 0x2CA0, symBinAddr: 0x100005DF8, symSize: 0x38 }
  - { offsetInCU: 0x2A05D, offset: 0x2A05D, size: 0x8, addend: 0x0, symName: __ZNSt8_Rb_treeISt4pairIiiES0_IKS1_S1_ESt10_Select1stIS3_ESt4lessIS1_ESaIS3_EE5clearEv, symObjAddr: 0x2C68, symBinAddr: 0x100005DC0, symSize: 0x38 }
  - { offsetInCU: 0x2A11C, offset: 0x2A11C, size: 0x8, addend: 0x0, symName: __ZNSt4pairISt23_Rb_tree_const_iteratorIS_IiiEEbEC1ISt17_Rb_tree_iteratorIS1_EbLb1EEEOS_IT_T0_E, symObjAddr: 0x2C14, symBinAddr: 0x100005D6C, symSize: 0x54 }
  - { offsetInCU: 0x2A102, offset: 0x2A102, size: 0x8, addend: 0x0, symName: __ZNSt8_Rb_treeISt4pairIiiES1_St9_IdentityIS1_ESt4lessIS1_ESaIS1_EE17_M_emplace_uniqueIJS1_EEES0_ISt17_Rb_tree_iteratorIS1_EbEDpOT_, symObjAddr: 0x2B30, symBinAddr: 0x100005C88, symSize: 0xE4 }
  - { offsetInCU: 0x2A16F, offset: 0x2A16F, size: 0x8, addend: 0x0, symName: __ZSt7forwardISt4pairIiiEEOT_RNSt16remove_referenceIS2_E4typeE, symObjAddr: 0x2B1C, symBinAddr: 0x100005C74, symSize: 0x14 }
  - { offsetInCU: 0x2A1A5, offset: 0x2A1A5, size: 0x8, addend: 0x0, symName: __ZNSt8_Rb_treeISt4pairIiiES0_IKS1_iESt10_Select1stIS3_ESt4lessIS1_ESaIS3_EE22_M_emplace_hint_uniqueIJRKSt21piecewise_construct_tSt5tupleIJOS1_EESE_IJEEEEESt17_Rb_tree_iteratorIS3_ESt23_Rb_tree_const_iteratorIS3_EDpOT_, symObjAddr: 0x2A44, symBinAddr: 0x100005B9C, symSize: 0xD8 }
  - { offsetInCU: 0x2A238, offset: 0x2A238, size: 0x8, addend: 0x0, symName: __ZSt16forward_as_tupleIJSt4pairIiiEEESt5tupleIJDpOT_EES5_, symObjAddr: 0x2A0C, symBinAddr: 0x100005B64, symSize: 0x38 }
  - { offsetInCU: 0x2A273, offset: 0x2A273, size: 0x8, addend: 0x0, symName: __ZSt4moveIRSt4pairIiiEEONSt16remove_referenceIT_E4typeEOS4_, symObjAddr: 0x29F8, symBinAddr: 0x100005B50, symSize: 0x14 }
  - { offsetInCU: 0x2A2AB, offset: 0x2A2AB, size: 0x8, addend: 0x0, symName: __ZSteqRKSt23_Rb_tree_const_iteratorISt4pairIiiEES4_, symObjAddr: 0x29C8, symBinAddr: 0x100005B20, symSize: 0x30 }
  - { offsetInCU: 0x2A2EA, offset: 0x2A2EA, size: 0x8, addend: 0x0, symName: __ZNKSt8_Rb_treeISt4pairIiiES1_St9_IdentityIS1_ESt4lessIS1_ESaIS1_EE3endEv, symObjAddr: 0x29A0, symBinAddr: 0x100005AF8, symSize: 0x28 }
  - { offsetInCU: 0x2A314, offset: 0x2A314, size: 0x8, addend: 0x0, symName: __ZNKSt8_Rb_treeISt4pairIiiES1_St9_IdentityIS1_ESt4lessIS1_ESaIS1_EE4findERKS1_, symObjAddr: 0x28F8, symBinAddr: 0x100005A50, symSize: 0xA8 }
  - { offsetInCU: 0x2A360, offset: 0x2A360, size: 0x8, addend: 0x0, symName: __ZNSt8_Rb_treeISt4pairIiiES1_St9_IdentityIS1_ESt4lessIS1_ESaIS1_EE8_M_beginEv, symObjAddr: 0x28DC, symBinAddr: 0x100005A34, symSize: 0x1C }
  - { offsetInCU: 0x2A38A, offset: 0x2A38A, size: 0x8, addend: 0x0, symName: __ZNSt8_Rb_treeISt4pairIiiES1_St9_IdentityIS1_ESt4lessIS1_ESaIS1_EE8_M_eraseEPSt13_Rb_tree_nodeIS1_E, symObjAddr: 0x2878, symBinAddr: 0x1000059D0, symSize: 0x64 }
  - { offsetInCU: 0x2A444, offset: 0x2A444, size: 0x8, addend: 0x0, symName: __ZNSt15__new_allocatorISt13_Rb_tree_nodeISt4pairIiiEEED2Ev, symObjAddr: 0x2864, symBinAddr: 0x1000059BC, symSize: 0x14 }
  - { offsetInCU: 0x2A44B, offset: 0x2A44B, size: 0x8, addend: 0x0, symName: __ZSt7forwardIRiEOT_RNSt16remove_referenceIS1_E4typeE, symObjAddr: 0x2850, symBinAddr: 0x1000059A8, symSize: 0x14 }
  - { offsetInCU: 0x2A481, offset: 0x2A481, size: 0x8, addend: 0x0, symName: __ZNSt6vectorIcSaIcEE15_M_erase_at_endEPc, symObjAddr: 0x27CC, symBinAddr: 0x100005924, symSize: 0x84 }
  - { offsetInCU: 0x2A516, offset: 0x2A516, size: 0x8, addend: 0x0, symName: __ZNSt6vectorIcSaIcEE17_M_default_appendEm, symObjAddr: 0x25D4, symBinAddr: 0x10000572C, symSize: 0x1F8 }
  - { offsetInCU: 0x2A6F1, offset: 0x2A6F1, size: 0x8, addend: 0x0, symName: __ZZNSt6vectorIcSaIcEE17_M_default_appendEmEN6_GuardC1EPcmRS0_, symObjAddr: 0x2530, symBinAddr: 0x100005688, symSize: 0x44 }
  - { offsetInCU: 0x2A731, offset: 0x2A731, size: 0x8, addend: 0x0, symName: __ZZNSt6vectorIcSaIcEE17_M_default_appendEmEN6_GuardD1Ev, symObjAddr: 0x2574, symBinAddr: 0x1000056CC, symSize: 0x60 }
  - { offsetInCU: 0x2A75A, offset: 0x2A75A, size: 0x8, addend: 0x0, symName: __ZNKSt6vectorIcSaIcEE4sizeEv, symObjAddr: 0x250C, symBinAddr: 0x100005664, symSize: 0x24 }
  - { offsetInCU: 0x2A784, offset: 0x2A784, size: 0x8, addend: 0x0, symName: __ZNSt6vectorIS_IcSaIcEESaIS1_EE15_M_erase_at_endEPS1_, symObjAddr: 0x2478, symBinAddr: 0x1000055D0, symSize: 0x94 }
  - { offsetInCU: 0x2A819, offset: 0x2A819, size: 0x8, addend: 0x0, symName: __ZNSt6vectorIS_IcSaIcEESaIS1_EE17_M_default_appendEm, symObjAddr: 0x2224, symBinAddr: 0x10000537C, symSize: 0x254 }
  - { offsetInCU: 0x2AA01, offset: 0x2AA01, size: 0x8, addend: 0x0, symName: __ZZNSt6vectorIS_IcSaIcEESaIS1_EE17_M_default_appendEmEN6_GuardC1EPS1_mRS2_, symObjAddr: 0x2180, symBinAddr: 0x1000052D8, symSize: 0x44 }
  - { offsetInCU: 0x2AA3F, offset: 0x2AA3F, size: 0x8, addend: 0x0, symName: __ZZNSt6vectorIS_IcSaIcEESaIS1_EE17_M_default_appendEmEN6_GuardD1Ev, symObjAddr: 0x21C4, symBinAddr: 0x10000531C, symSize: 0x60 }
  - { offsetInCU: 0x2AA5D, offset: 0x2AA5D, size: 0x8, addend: 0x0, symName: __ZNKSt6vectorIS_IcSaIcEESaIS1_EE4sizeEv, symObjAddr: 0x214C, symBinAddr: 0x1000052A4, symSize: 0x34 }
  - { offsetInCU: 0x2AA87, offset: 0x2AA87, size: 0x8, addend: 0x0, symName: __ZNSt4pairIiiE4swapERS0_, symObjAddr: 0x2108, symBinAddr: 0x100005260, symSize: 0x44 }
  - { offsetInCU: 0x2AAC2, offset: 0x2AAC2, size: 0x8, addend: 0x0, symName: __ZNSt8_Rb_treeISt4pairIiiES0_IKS1_iESt10_Select1stIS3_ESt4lessIS1_ESaIS3_EE22_M_emplace_hint_uniqueIJRKSt21piecewise_construct_tSt5tupleIJRS2_EESE_IJEEEEESt17_Rb_tree_iteratorIS3_ESt23_Rb_tree_const_iteratorIS3_EDpOT_, symObjAddr: 0x2030, symBinAddr: 0x100005188, symSize: 0xD8 }
  - { offsetInCU: 0x2ABCF, offset: 0x2ABCF, size: 0x8, addend: 0x0, symName: __ZNSt23_Rb_tree_const_iteratorISt4pairIKS0_IiiEiEEC1ERKSt17_Rb_tree_iteratorIS3_E, symObjAddr: 0x2008, symBinAddr: 0x100005160, symSize: 0x28 }
  - { offsetInCU: 0x2ABB0, offset: 0x2ABB0, size: 0x8, addend: 0x0, symName: __ZNKSt17_Rb_tree_iteratorISt4pairIKS0_IiiEiEEdeEv, symObjAddr: 0x1FE8, symBinAddr: 0x100005140, symSize: 0x20 }
  - { offsetInCU: 0x2ABDA, offset: 0x2ABDA, size: 0x8, addend: 0x0, symName: __ZNKSt3mapISt4pairIiiEiSt4lessIS1_ESaIS0_IKS1_iEEE8key_compEv, symObjAddr: 0x1FBC, symBinAddr: 0x100005114, symSize: 0x2C }
  - { offsetInCU: 0x2AC06, offset: 0x2AC06, size: 0x8, addend: 0x0, symName: __ZSteqRKSt17_Rb_tree_iteratorISt4pairIKS0_IiiEiEES6_, symObjAddr: 0x1F8C, symBinAddr: 0x1000050E4, symSize: 0x30 }
  - { offsetInCU: 0x2AC45, offset: 0x2AC45, size: 0x8, addend: 0x0, symName: __ZNSt3mapISt4pairIiiEiSt4lessIS1_ESaIS0_IKS1_iEEE3endEv, symObjAddr: 0x1F70, symBinAddr: 0x1000050C8, symSize: 0x1C }
  - { offsetInCU: 0x2AC6F, offset: 0x2AC6F, size: 0x8, addend: 0x0, symName: __ZNSt3mapISt4pairIiiEiSt4lessIS1_ESaIS0_IKS1_iEEE11lower_boundERS4_, symObjAddr: 0x1F4C, symBinAddr: 0x1000050A4, symSize: 0x24 }
  - { offsetInCU: 0x2ACAA, offset: 0x2ACAA, size: 0x8, addend: 0x0, symName: __ZNSt8_Rb_treeISt4pairIiiES0_IKS1_S1_ESt10_Select1stIS3_ESt4lessIS1_ESaIS3_EE22_M_emplace_hint_uniqueIJRKSt21piecewise_construct_tSt5tupleIJRS2_EESE_IJEEEEESt17_Rb_tree_iteratorIS3_ESt23_Rb_tree_const_iteratorIS3_EDpOT_, symObjAddr: 0x1E74, symBinAddr: 0x100004FCC, symSize: 0xD8 }
  - { offsetInCU: 0x2ADB9, offset: 0x2ADB9, size: 0x8, addend: 0x0, symName: __ZNSt23_Rb_tree_const_iteratorISt4pairIKS0_IiiES1_EEC1ERKSt17_Rb_tree_iteratorIS3_E, symObjAddr: 0x1E4C, symBinAddr: 0x100004FA4, symSize: 0x28 }
  - { offsetInCU: 0x2ADF3, offset: 0x2ADF3, size: 0x8, addend: 0x0, symName: __ZNSt5tupleIJRKSt4pairIiiEEEC1ILb1ELb1EEES3_, symObjAddr: 0x1E24, symBinAddr: 0x100004F7C, symSize: 0x28 }
  - { offsetInCU: 0x2AE03, offset: 0x2AE03, size: 0x8, addend: 0x0, symName: __ZNKSt4lessISt4pairIiiEEclERKS1_S4_, symObjAddr: 0x1DFC, symBinAddr: 0x100004F54, symSize: 0x28 }
  - { offsetInCU: 0x2AE4F, offset: 0x2AE4F, size: 0x8, addend: 0x0, symName: __ZNKSt17_Rb_tree_iteratorISt4pairIKS0_IiiES1_EEdeEv, symObjAddr: 0x1DDC, symBinAddr: 0x100004F34, symSize: 0x20 }
  - { offsetInCU: 0x2AE79, offset: 0x2AE79, size: 0x8, addend: 0x0, symName: __ZNKSt3mapISt4pairIiiES1_St4lessIS1_ESaIS0_IKS1_S1_EEE8key_compEv, symObjAddr: 0x1DB0, symBinAddr: 0x100004F08, symSize: 0x2C }
  - { offsetInCU: 0x2AEA5, offset: 0x2AEA5, size: 0x8, addend: 0x0, symName: __ZSteqRKSt17_Rb_tree_iteratorISt4pairIKS0_IiiES1_EES6_, symObjAddr: 0x1D80, symBinAddr: 0x100004ED8, symSize: 0x30 }
  - { offsetInCU: 0x2AEE4, offset: 0x2AEE4, size: 0x8, addend: 0x0, symName: __ZNSt3mapISt4pairIiiES1_St4lessIS1_ESaIS0_IKS1_S1_EEE3endEv, symObjAddr: 0x1D64, symBinAddr: 0x100004EBC, symSize: 0x1C }
  - { offsetInCU: 0x2AF0E, offset: 0x2AF0E, size: 0x8, addend: 0x0, symName: __ZNSt3mapISt4pairIiiES1_St4lessIS1_ESaIS0_IKS1_S1_EEE11lower_boundERS4_, symObjAddr: 0x1D40, symBinAddr: 0x100004E98, symSize: 0x24 }
  - { offsetInCU: 0x2AF49, offset: 0x2AF49, size: 0x8, addend: 0x0, symName: __ZNSt8_Rb_treeISt4pairIiiES0_IKS1_iESt10_Select1stIS3_ESt4lessIS1_ESaIS3_EE8_M_beginEv, symObjAddr: 0x1D24, symBinAddr: 0x100004E7C, symSize: 0x1C }
  - { offsetInCU: 0x2AF73, offset: 0x2AF73, size: 0x8, addend: 0x0, symName: __ZNSt8_Rb_treeISt4pairIiiES0_IKS1_iESt10_Select1stIS3_ESt4lessIS1_ESaIS3_EE8_M_eraseEPSt13_Rb_tree_nodeIS3_E, symObjAddr: 0x1CC0, symBinAddr: 0x100004E18, symSize: 0x64 }
  - { offsetInCU: 0x2B034, offset: 0x2B034, size: 0x8, addend: 0x0, symName: __ZNSt15__new_allocatorISt13_Rb_tree_nodeISt4pairIKS1_IiiEiEEED2Ev, symObjAddr: 0x1CAC, symBinAddr: 0x100004E04, symSize: 0x14 }
  - { offsetInCU: 0x2B032, offset: 0x2B032, size: 0x8, addend: 0x0, symName: __ZNSt8_Rb_treeISt4pairIiiES0_IKS1_S1_ESt10_Select1stIS3_ESt4lessIS1_ESaIS3_EE8_M_beginEv, symObjAddr: 0x1C90, symBinAddr: 0x100004DE8, symSize: 0x1C }
  - { offsetInCU: 0x2B05C, offset: 0x2B05C, size: 0x8, addend: 0x0, symName: __ZNSt8_Rb_treeISt4pairIiiES0_IKS1_S1_ESt10_Select1stIS3_ESt4lessIS1_ESaIS3_EE8_M_eraseEPSt13_Rb_tree_nodeIS3_E, symObjAddr: 0x1C2C, symBinAddr: 0x100004D84, symSize: 0x64 }
  - { offsetInCU: 0x2B11F, offset: 0x2B11F, size: 0x8, addend: 0x0, symName: __ZNSt15__new_allocatorISt13_Rb_tree_nodeISt4pairIKS1_IiiES2_EEED2Ev, symObjAddr: 0x1C18, symBinAddr: 0x100004D70, symSize: 0x14 }
  - { offsetInCU: 0x2B151, offset: 0x2B151, size: 0x8, addend: 0x0, symName: __ZNSt20_Rb_tree_key_compareISt4lessISt4pairIiiEEEC2Ev, symObjAddr: 0x1C04, symBinAddr: 0x100004D5C, symSize: 0x14 }
  - { offsetInCU: 0x2B15B, offset: 0x2B15B, size: 0x8, addend: 0x0, symName: __ZNSt12_Vector_baseISt6vectorIcSaIcEESaIS2_EE13_M_deallocateEPS2_m, symObjAddr: 0x1BAC, symBinAddr: 0x100004D04, symSize: 0x58 }
  - { offsetInCU: 0x2B22B, offset: 0x2B22B, size: 0x8, addend: 0x0, symName: __ZNSt15__new_allocatorISt6vectorIcSaIcEEED2Ev, symObjAddr: 0x1B98, symBinAddr: 0x100004CF0, symSize: 0x14 }
  - { offsetInCU: 0x2B282, offset: 0x2B282, size: 0x8, addend: 0x0, symName: __ZNSt12_Vector_baseISt6vectorIcSaIcEESaIS2_EE17_Vector_impl_dataC2Ev, symObjAddr: 0x1B6C, symBinAddr: 0x100004CC4, symSize: 0x2C }
  - { offsetInCU: 0x2B27F, offset: 0x2B27F, size: 0x8, addend: 0x0, symName: __ZSt7forwardIbEOT_RNSt16remove_referenceIS0_E4typeE, symObjAddr: 0x1B58, symBinAddr: 0x100004CB0, symSize: 0x14 }
  - { offsetInCU: 0x2B2F3, offset: 0x2B2F3, size: 0x8, addend: 0x0, symName: __ZNSt15__new_allocatorIcED2Ev, symObjAddr: 0x1B44, symBinAddr: 0x100004C9C, symSize: 0x14 }
  - { offsetInCU: 0x2B315, offset: 0x2B315, size: 0x8, addend: 0x0, symName: __ZNSt3mapISt4pairIiiEiSt4lessIS1_ESaIS0_IKS1_iEEE5clearEv, symObjAddr: 0x1B24, symBinAddr: 0x100004C7C, symSize: 0x20 }
  - { offsetInCU: 0x2B33F, offset: 0x2B33F, size: 0x8, addend: 0x0, symName: __ZNSt3mapISt4pairIiiES1_St4lessIS1_ESaIS0_IKS1_S1_EEE5clearEv, symObjAddr: 0x1B04, symBinAddr: 0x100004C5C, symSize: 0x20 }
  - { offsetInCU: 0x2B36B, offset: 0x2B36B, size: 0x8, addend: 0x0, symName: __ZSt3maxIxERKT_S2_S2_, symObjAddr: 0x1ACC, symBinAddr: 0x100004C24, symSize: 0x38 }
  - { offsetInCU: 0x2B3B3, offset: 0x2B3B3, size: 0x8, addend: 0x0, symName: __ZNSt3setISt4pairIiiESt4lessIS1_ESaIS1_EE7emplaceIJS1_EEES0_ISt23_Rb_tree_const_iteratorIS1_EbEDpOT_, symObjAddr: 0x1A80, symBinAddr: 0x100004BD8, symSize: 0x4C }
  - { offsetInCU: 0x2B3F8, offset: 0x2B3F8, size: 0x8, addend: 0x0, symName: __ZNSt3mapISt4pairIiiEiSt4lessIS1_ESaIS0_IKS1_iEEEixEOS1_, symObjAddr: 0x1984, symBinAddr: 0x100004ADC, symSize: 0xFC }
  - { offsetInCU: 0x2B444, offset: 0x2B444, size: 0x8, addend: 0x0, symName: __ZNKSt3setISt4pairIiiESt4lessIS1_ESaIS1_EE5countERKS1_, symObjAddr: 0x192C, symBinAddr: 0x100004A84, symSize: 0x58 }
  - { offsetInCU: 0x2B4E6, offset: 0x2B4E6, size: 0x8, addend: 0x0, symName: __ZNSt8_Rb_treeISt4pairIiiES1_St9_IdentityIS1_ESt4lessIS1_ESaIS1_EED1Ev, symObjAddr: 0x18F8, symBinAddr: 0x100004A50, symSize: 0x34 }
  - { offsetInCU: 0x2B55E, offset: 0x2B55E, size: 0x8, addend: 0x0, symName: __ZNSt8_Rb_treeISt4pairIiiES1_St9_IdentityIS1_ESt4lessIS1_ESaIS1_EE13_Rb_tree_implIS5_Lb1EEC1Ev, symObjAddr: 0x18B4, symBinAddr: 0x100004A0C, symSize: 0x44 }
  - { offsetInCU: 0x2B5D6, offset: 0x2B5D6, size: 0x8, addend: 0x0, symName: __ZNSt4pairIiiEC1IRiiLb1EEEOT_OT0_, symObjAddr: 0x186C, symBinAddr: 0x1000049C4, symSize: 0x48 }
  - { offsetInCU: 0x2B668, offset: 0x2B668, size: 0x8, addend: 0x0, symName: __ZNSt4pairIiiEC1IiRiLb1EEEOT_OT0_, symObjAddr: 0x1824, symBinAddr: 0x10000497C, symSize: 0x48 }
  - { offsetInCU: 0x2B6FC, offset: 0x2B6FC, size: 0x8, addend: 0x0, symName: __ZNSt4pairIiiEC1IRiS2_Lb1EEEOT_OT0_, symObjAddr: 0x17DC, symBinAddr: 0x100004934, symSize: 0x48 }
  - { offsetInCU: 0x2B726, offset: 0x2B726, size: 0x8, addend: 0x0, symName: __ZNSt6vectorIcSaIcEEixEm, symObjAddr: 0x17B8, symBinAddr: 0x100004910, symSize: 0x24 }
  - { offsetInCU: 0x2B761, offset: 0x2B761, size: 0x8, addend: 0x0, symName: __ZNSt6vectorIcSaIcEE6resizeEm, symObjAddr: 0x170C, symBinAddr: 0x100004864, symSize: 0xAC }
  - { offsetInCU: 0x2B79C, offset: 0x2B79C, size: 0x8, addend: 0x0, symName: __ZNSt6vectorIS_IcSaIcEESaIS1_EEixEm, symObjAddr: 0x16D8, symBinAddr: 0x100004830, symSize: 0x34 }
  - { offsetInCU: 0x2B7D7, offset: 0x2B7D7, size: 0x8, addend: 0x0, symName: __ZNSt6vectorIS_IcSaIcEESaIS1_EE6resizeEm, symObjAddr: 0x161C, symBinAddr: 0x100004774, symSize: 0xBC }
  - { offsetInCU: 0x2B80E, offset: 0x2B80E, size: 0x8, addend: 0x0, symName: __ZSt4swapIiiENSt9enable_ifIXsrSt6__and_IJSt14__is_swappableIT_ES2_IT0_EEE5valueEvE4typeERSt4pairIS3_S5_ESC_, symObjAddr: 0x15F4, symBinAddr: 0x10000474C, symSize: 0x28 }
  - { offsetInCU: 0x2B85B, offset: 0x2B85B, size: 0x8, addend: 0x0, symName: __ZStneIiiEbRKSt4pairIT_T0_ES5_, symObjAddr: 0x15C8, symBinAddr: 0x100004720, symSize: 0x2C }
  - { offsetInCU: 0x2B8AC, offset: 0x2B8AC, size: 0x8, addend: 0x0, symName: __ZNSt4pairIiiEaSEOS0_, symObjAddr: 0x1580, symBinAddr: 0x1000046D8, symSize: 0x48 }
  - { offsetInCU: 0x2B8E3, offset: 0x2B8E3, size: 0x8, addend: 0x0, symName: __ZSteqIiiEbRKSt4pairIT_T0_ES5_, symObjAddr: 0x1530, symBinAddr: 0x100004688, symSize: 0x50 }
  - { offsetInCU: 0x2B934, offset: 0x2B934, size: 0x8, addend: 0x0, symName: __ZNSt3mapISt4pairIiiEiSt4lessIS1_ESaIS0_IKS1_iEEEixERS4_, symObjAddr: 0x1444, symBinAddr: 0x10000459C, symSize: 0xEC }
  - { offsetInCU: 0x2B980, offset: 0x2B980, size: 0x8, addend: 0x0, symName: __ZNSt4pairIiiEaSERKS0_, symObjAddr: 0x140C, symBinAddr: 0x100004564, symSize: 0x38 }
  - { offsetInCU: 0x2B9BB, offset: 0x2B9BB, size: 0x8, addend: 0x0, symName: __ZNSt3mapISt4pairIiiES1_St4lessIS1_ESaIS0_IKS1_S1_EEEixERS4_, symObjAddr: 0x1320, symBinAddr: 0x100004478, symSize: 0xEC }
  - { offsetInCU: 0x2BA77, offset: 0x2BA77, size: 0x8, addend: 0x0, symName: __ZNSt8_Rb_treeISt4pairIiiES0_IKS1_iESt10_Select1stIS3_ESt4lessIS1_ESaIS3_EED1Ev, symObjAddr: 0x12EC, symBinAddr: 0x100004444, symSize: 0x34 }
  - { offsetInCU: 0x2BAEF, offset: 0x2BAEF, size: 0x8, addend: 0x0, symName: __ZNSt8_Rb_treeISt4pairIiiES0_IKS1_iESt10_Select1stIS3_ESt4lessIS1_ESaIS3_EE13_Rb_tree_implIS7_Lb1EEC1Ev, symObjAddr: 0x12A8, symBinAddr: 0x100004400, symSize: 0x44 }
  - { offsetInCU: 0x2BB6A, offset: 0x2BB6A, size: 0x8, addend: 0x0, symName: __ZNSt8_Rb_treeISt4pairIiiES0_IKS1_S1_ESt10_Select1stIS3_ESt4lessIS1_ESaIS3_EED1Ev, symObjAddr: 0x1274, symBinAddr: 0x1000043CC, symSize: 0x34 }
  - { offsetInCU: 0x2BBE2, offset: 0x2BBE2, size: 0x8, addend: 0x0, symName: __ZNSt8_Rb_treeISt4pairIiiES0_IKS1_S1_ESt10_Select1stIS3_ESt4lessIS1_ESaIS3_EE13_Rb_tree_implIS7_Lb1EEC1Ev, symObjAddr: 0x1230, symBinAddr: 0x100004388, symSize: 0x44 }
  - { offsetInCU: 0x2BC3B, offset: 0x2BC3B, size: 0x8, addend: 0x0, symName: __ZNSt12_Vector_baseISt6vectorIcSaIcEESaIS2_EED2Ev, symObjAddr: 0x11D4, symBinAddr: 0x10000432C, symSize: 0x5C }
  - { offsetInCU: 0x2BCA9, offset: 0x2BCA9, size: 0x8, addend: 0x0, symName: __ZNSt12_Vector_baseISt6vectorIcSaIcEESaIS2_EE12_Vector_implC1Ev, symObjAddr: 0x119C, symBinAddr: 0x1000042F4, symSize: 0x38 }
  - { offsetInCU: 0x2BCDB, offset: 0x2BCDB, size: 0x8, addend: 0x0, symName: __ZSt7forwardIiEOT_RNSt16remove_referenceIS0_E4typeE, symObjAddr: 0x1188, symBinAddr: 0x1000042E0, symSize: 0x14 }
  - { offsetInCU: 0x2BD0D, offset: 0x2BD0D, size: 0x8, addend: 0x0, symName: __ZSt3maxImERKT_S2_S2_, symObjAddr: 0x1150, symBinAddr: 0x1000042A8, symSize: 0x38 }
  - { offsetInCU: 0x2BD90, offset: 0x2BD90, size: 0x8, addend: 0x0, symName: _main, symObjAddr: 0x10C4, symBinAddr: 0x10000421C, symSize: 0x8C }
  - { offsetInCU: 0x2BDC7, offset: 0x2BDC7, size: 0x8, addend: 0x0, symName: __Z5solvev, symObjAddr: 0x4C0, symBinAddr: 0x100003618, symSize: 0xC04 }
  - { offsetInCU: 0x2BFA6, offset: 0x2BFA6, size: 0x8, addend: 0x0, symName: __ZNSt3setISt4pairIiiESt4lessIS1_ESaIS1_EED1Ev, symObjAddr: 0x4A0, symBinAddr: 0x1000035F8, symSize: 0x20 }
  - { offsetInCU: 0x2BFE6, offset: 0x2BFE6, size: 0x8, addend: 0x0, symName: __ZNSt3setISt4pairIiiESt4lessIS1_ESaIS1_EEC1Ev, symObjAddr: 0x480, symBinAddr: 0x1000035D8, symSize: 0x20 }
  - { offsetInCU: 0x2C03F, offset: 0x2C03F, size: 0x8, addend: 0x0, symName: __ZNSt8_Rb_treeISt4pairIiiES1_St9_IdentityIS1_ESt4lessIS1_ESaIS1_EEC1Ev, symObjAddr: 0x460, symBinAddr: 0x1000035B8, symSize: 0x20 }
  - { offsetInCU: 0x2C0A5, offset: 0x2C0A5, size: 0x8, addend: 0x0, symName: __ZNSt8_Rb_treeISt4pairIiiES1_St9_IdentityIS1_ESt4lessIS1_ESaIS1_EE13_Rb_tree_implIS5_Lb1EED1Ev, symObjAddr: 0x434, symBinAddr: 0x10000358C, symSize: 0x2C }
  - { offsetInCU: 0x2C0B8, offset: 0x2C0B8, size: 0x8, addend: 0x0, symName: __Z10union_setsSt4pairIiiES0_, symObjAddr: 0x314, symBinAddr: 0x10000346C, symSize: 0x120 }
  - { offsetInCU: 0x2C0F4, offset: 0x2C0F4, size: 0x8, addend: 0x0, symName: __Z8find_setSt4pairIiiE, symObjAddr: 0x280, symBinAddr: 0x1000033D8, symSize: 0x94 }
  - { offsetInCU: 0x2C124, offset: 0x2C124, size: 0x8, addend: 0x0, symName: __Z8make_setSt4pairIiiE, symObjAddr: 0x224, symBinAddr: 0x10000337C, symSize: 0x5C }
  - { offsetInCU: 0x2C184, offset: 0x2C184, size: 0x8, addend: 0x0, symName: __ZNSt3mapISt4pairIiiEiSt4lessIS1_ESaIS0_IKS1_iEEEC1Ev, symObjAddr: 0x204, symBinAddr: 0x10000335C, symSize: 0x20 }
  - { offsetInCU: 0x2C1DE, offset: 0x2C1DE, size: 0x8, addend: 0x0, symName: __ZNSt8_Rb_treeISt4pairIiiES0_IKS1_iESt10_Select1stIS3_ESt4lessIS1_ESaIS3_EEC1Ev, symObjAddr: 0x1E4, symBinAddr: 0x10000333C, symSize: 0x20 }
  - { offsetInCU: 0x2C244, offset: 0x2C244, size: 0x8, addend: 0x0, symName: __ZNSt8_Rb_treeISt4pairIiiES0_IKS1_iESt10_Select1stIS3_ESt4lessIS1_ESaIS3_EE13_Rb_tree_implIS7_Lb1EED1Ev, symObjAddr: 0x1B8, symBinAddr: 0x100003310, symSize: 0x2C }
  - { offsetInCU: 0x2C27A, offset: 0x2C27A, size: 0x8, addend: 0x0, symName: __ZNSt3mapISt4pairIiiES1_St4lessIS1_ESaIS0_IKS1_S1_EEEC1Ev, symObjAddr: 0x198, symBinAddr: 0x1000032F0, symSize: 0x20 }
  - { offsetInCU: 0x2C2D2, offset: 0x2C2D2, size: 0x8, addend: 0x0, symName: __ZNSt8_Rb_treeISt4pairIiiES0_IKS1_S1_ESt10_Select1stIS3_ESt4lessIS1_ESaIS3_EEC1Ev, symObjAddr: 0x178, symBinAddr: 0x1000032D0, symSize: 0x20 }
  - { offsetInCU: 0x2C338, offset: 0x2C338, size: 0x8, addend: 0x0, symName: __ZNSt8_Rb_treeISt4pairIiiES0_IKS1_S1_ESt10_Select1stIS3_ESt4lessIS1_ESaIS3_EE13_Rb_tree_implIS7_Lb1EED1Ev, symObjAddr: 0x14C, symBinAddr: 0x1000032A4, symSize: 0x2C }
  - { offsetInCU: 0x2C356, offset: 0x2C356, size: 0x8, addend: 0x0, symName: __ZNSt6vectorIS_IcSaIcEESaIS1_EEC1Ev, symObjAddr: 0x12C, symBinAddr: 0x100003284, symSize: 0x20 }
  - { offsetInCU: 0x2C3A4, offset: 0x2C3A4, size: 0x8, addend: 0x0, symName: __ZNSt12_Vector_baseISt6vectorIcSaIcEESaIS2_EEC2Ev, symObjAddr: 0x10C, symBinAddr: 0x100003264, symSize: 0x20 }
  - { offsetInCU: 0x2C3FF, offset: 0x2C3FF, size: 0x8, addend: 0x0, symName: __ZNSt12_Vector_baseISt6vectorIcSaIcEESaIS2_EE12_Vector_implD1Ev, symObjAddr: 0xE0, symBinAddr: 0x100003238, symSize: 0x2C }
  - { offsetInCU: 0x2C40C, offset: 0x2C40C, size: 0x8, addend: 0x0, symName: __ZNSt15_Rb_tree_header8_M_resetEv, symObjAddr: 0xA4, symBinAddr: 0x1000031FC, symSize: 0x3C }
  - { offsetInCU: 0x2C467, offset: 0x2C467, size: 0x8, addend: 0x0, symName: __ZNSt15_Rb_tree_headerC2Ev, symObjAddr: 0x7C, symBinAddr: 0x1000031D4, symSize: 0x28 }
  - { offsetInCU: 0x2C472, offset: 0x2C472, size: 0x8, addend: 0x0, symName: __ZSt3minImERKT_S2_S2_, symObjAddr: 0x44, symBinAddr: 0x10000319C, symSize: 0x38 }
  - { offsetInCU: 0x2C4C1, offset: 0x2C4C1, size: 0x8, addend: 0x0, symName: __ZdlPvS_, symObjAddr: 0x2C, symBinAddr: 0x100003184, symSize: 0x18 }
  - { offsetInCU: 0x2C4F6, offset: 0x2C4F6, size: 0x8, addend: 0x0, symName: __ZnwmPv, symObjAddr: 0x14, symBinAddr: 0x10000316C, symSize: 0x18 }
  - { offsetInCU: 0x2C524, offset: 0x2C524, size: 0x8, addend: 0x0, symName: __ZSt17__size_to_integerm, symObjAddr: 0x0, symBinAddr: 0x100003158, symSize: 0x14 }
...
